
AVRASM ver. 2.1.30  L:\work\σκημ\ακθ_2012\bki.asm Fri Nov 07 00:50:39 2014

L:\work\σκημ\ακθ_2012\bki.asm(1090): warning: Register r4 already defined by the .DEF directive
L:\work\σκημ\ακθ_2012\bki.asm(1091): warning: Register r5 already defined by the .DEF directive
L:\work\σκημ\ακθ_2012\bki.asm(1092): warning: Register r6 already defined by the .DEF directive
L:\work\σκημ\ακθ_2012\bki.asm(1093): warning: Register r7 already defined by the .DEF directive
L:\work\σκημ\ακθ_2012\bki.asm(1094): warning: Register r8 already defined by the .DEF directive
L:\work\σκημ\ακθ_2012\bki.asm(1095): warning: Register r9 already defined by the .DEF directive
L:\work\σκημ\ακθ_2012\bki.asm(1096): warning: Register r10 already defined by the .DEF directive
L:\work\σκημ\ακθ_2012\bki.asm(1097): warning: Register r11 already defined by the .DEF directive
L:\work\σκημ\ακθ_2012\bki.asm(1098): warning: Register r12 already defined by the .DEF directive
L:\work\σκημ\ακθ_2012\bki.asm(1099): warning: Register r13 already defined by the .DEF directive
                 
                 
                 ;CodeVisionAVR C Compiler V3.10 Advanced
                 ;(C) Copyright 1998-2014 Pavel Haiduc, HP InfoTech s.r.l.
                 ;http://www.hpinfotech.com
                 
                 ;Build configuration    : Release
                 ;Chip type              : ATmega128
                 ;Program type           : Application
                 ;Clock frequency        : 8,000000 MHz
                 ;Memory model           : Small
                 ;Optimize for           : Speed
                 ;(s)printf features     : int, width
                 ;(s)scanf features      : int, width
                 ;External RAM size      : 0
                 ;Data Stack size        : 1024 byte(s)
                 ;Heap size              : 0 byte(s)
                 ;Promote 'char' to 'int': Yes
                 ;'char' is unsigned     : Yes
                 ;8 bit enums            : Yes
                 ;Global 'const' stored in FLASH: No
                 ;Enhanced function parameter passing: Yes
                 ;Enhanced core instructions: On
                 ;Automatic register allocation for global variables: On
                 ;Smart register allocation: On
                 
                 	#define _MODEL_SMALL_
                 
                 	#pragma AVRPART ADMIN PART_NAME ATmega128
                 	#pragma AVRPART MEMORY PROG_FLASH 131072
                 	#pragma AVRPART MEMORY EEPROM 4096
                 	#pragma AVRPART MEMORY INT_SRAM SIZE 4096
                 	#pragma AVRPART MEMORY INT_SRAM START_ADDR 0x100
                 
                 	#define CALL_SUPPORTED 1
                 
                 	.LISTMAC
                 	.EQU UDRE=0x5
                 	.EQU RXC=0x7
                 	.EQU USR=0xB
                 	.EQU UDR=0xC
                 	.EQU SPSR=0xE
                 	.EQU SPDR=0xF
                 	.EQU EERE=0x0
                 	.EQU EEWE=0x1
                 	.EQU EEMWE=0x2
                 	.EQU EECR=0x1C
                 	.EQU EEDR=0x1D
                 	.EQU EEARL=0x1E
                 	.EQU EEARH=0x1F
                 	.EQU WDTCR=0x21
                 	.EQU MCUCR=0x35
                 	.EQU RAMPZ=0x3B
                 	.EQU SPL=0x3D
                 	.EQU SPH=0x3E
                 	.EQU SREG=0x3F
                 	.EQU XMCRA=0x6D
                 	.EQU XMCRB=0x6C
                 
                 	.DEF R0X0=R0
                 	.DEF R0X1=R1
                 	.DEF R0X2=R2
                 	.DEF R0X3=R3
                 	.DEF R0X4=R4
                 	.DEF R0X5=R5
                 	.DEF R0X6=R6
                 	.DEF R0X7=R7
                 	.DEF R0X8=R8
                 	.DEF R0X9=R9
                 	.DEF R0XA=R10
                 	.DEF R0XB=R11
                 	.DEF R0XC=R12
                 	.DEF R0XD=R13
                 	.DEF R0XE=R14
                 	.DEF R0XF=R15
                 	.DEF R0X10=R16
                 	.DEF R0X11=R17
                 	.DEF R0X12=R18
                 	.DEF R0X13=R19
                 	.DEF R0X14=R20
                 	.DEF R0X15=R21
                 	.DEF R0X16=R22
                 	.DEF R0X17=R23
                 	.DEF R0X18=R24
                 	.DEF R0X19=R25
                 	.DEF R0X1A=R26
                 	.DEF R0X1B=R27
                 	.DEF R0X1C=R28
                 	.DEF R0X1D=R29
                 	.DEF R0X1E=R30
                 	.DEF R0X1F=R31
                 
                 	.EQU __SRAM_START=0x0100
                 	.EQU __SRAM_END=0x10FF
                 	.EQU __DSTACK_SIZE=0x0400
                 	.EQU __HEAP_SIZE=0x0000
                 	.EQU __CLEAR_SRAM_SIZE=__SRAM_END-__SRAM_START+1
                 
                 	.MACRO __CPD1N
                 	CPI  R30,LOW(@0)
                 	LDI  R26,HIGH(@0)
                 	CPC  R31,R26
                 	LDI  R26,BYTE3(@0)
                 	CPC  R22,R26
                 	LDI  R26,BYTE4(@0)
                 	CPC  R23,R26
                 	.ENDM
                 
                 	.MACRO __CPD2N
                 	CPI  R26,LOW(@0)
                 	LDI  R30,HIGH(@0)
                 	CPC  R27,R30
                 	LDI  R30,BYTE3(@0)
                 	CPC  R24,R30
                 	LDI  R30,BYTE4(@0)
                 	CPC  R25,R30
                 	.ENDM
                 
                 	.MACRO __CPWRR
                 	CP   R@0,R@2
                 	CPC  R@1,R@3
                 	.ENDM
                 
                 	.MACRO __CPWRN
                 	CPI  R@0,LOW(@2)
                 	LDI  R30,HIGH(@2)
                 	CPC  R@1,R30
                 	.ENDM
                 
                 	.MACRO __ADDB1MN
                 	SUBI R30,LOW(-@0-(@1))
                 	.ENDM
                 
                 	.MACRO __ADDB2MN
                 	SUBI R26,LOW(-@0-(@1))
                 	.ENDM
                 
                 	.MACRO __ADDW1MN
                 	SUBI R30,LOW(-@0-(@1))
                 	SBCI R31,HIGH(-@0-(@1))
                 	.ENDM
                 
                 	.MACRO __ADDW2MN
                 	SUBI R26,LOW(-@0-(@1))
                 	SBCI R27,HIGH(-@0-(@1))
                 	.ENDM
                 
                 	.MACRO __ADDW1FN
                 	SUBI R30,LOW(-2*@0-(@1))
                 	SBCI R31,HIGH(-2*@0-(@1))
                 	.ENDM
                 
                 	.MACRO __ADDD1FN
                 	SUBI R30,LOW(-2*@0-(@1))
                 	SBCI R31,HIGH(-2*@0-(@1))
                 	SBCI R22,BYTE3(-2*@0-(@1))
                 	.ENDM
                 
                 	.MACRO __ADDD1N
                 	SUBI R30,LOW(-@0)
                 	SBCI R31,HIGH(-@0)
                 	SBCI R22,BYTE3(-@0)
                 	SBCI R23,BYTE4(-@0)
                 	.ENDM
                 
                 	.MACRO __ADDD2N
                 	SUBI R26,LOW(-@0)
                 	SBCI R27,HIGH(-@0)
                 	SBCI R24,BYTE3(-@0)
                 	SBCI R25,BYTE4(-@0)
                 	.ENDM
                 
                 	.MACRO __SUBD1N
                 	SUBI R30,LOW(@0)
                 	SBCI R31,HIGH(@0)
                 	SBCI R22,BYTE3(@0)
                 	SBCI R23,BYTE4(@0)
                 	.ENDM
                 
                 	.MACRO __SUBD2N
                 	SUBI R26,LOW(@0)
                 	SBCI R27,HIGH(@0)
                 	SBCI R24,BYTE3(@0)
                 	SBCI R25,BYTE4(@0)
                 	.ENDM
                 
                 	.MACRO __ANDBMNN
                 	LDS  R30,@0+(@1)
                 	ANDI R30,LOW(@2)
                 	STS  @0+(@1),R30
                 	.ENDM
                 
                 	.MACRO __ANDWMNN
                 	LDS  R30,@0+(@1)
                 	ANDI R30,LOW(@2)
                 	STS  @0+(@1),R30
                 	LDS  R30,@0+(@1)+1
                 	ANDI R30,HIGH(@2)
                 	STS  @0+(@1)+1,R30
                 	.ENDM
                 
                 	.MACRO __ANDD1N
                 	ANDI R30,LOW(@0)
                 	ANDI R31,HIGH(@0)
                 	ANDI R22,BYTE3(@0)
                 	ANDI R23,BYTE4(@0)
                 	.ENDM
                 
                 	.MACRO __ANDD2N
                 	ANDI R26,LOW(@0)
                 	ANDI R27,HIGH(@0)
                 	ANDI R24,BYTE3(@0)
                 	ANDI R25,BYTE4(@0)
                 	.ENDM
                 
                 	.MACRO __ORBMNN
                 	LDS  R30,@0+(@1)
                 	ORI  R30,LOW(@2)
                 	STS  @0+(@1),R30
                 	.ENDM
                 
                 	.MACRO __ORWMNN
                 	LDS  R30,@0+(@1)
                 	ORI  R30,LOW(@2)
                 	STS  @0+(@1),R30
                 	LDS  R30,@0+(@1)+1
                 	ORI  R30,HIGH(@2)
                 	STS  @0+(@1)+1,R30
                 	.ENDM
                 
                 	.MACRO __ORD1N
                 	ORI  R30,LOW(@0)
                 	ORI  R31,HIGH(@0)
                 	ORI  R22,BYTE3(@0)
                 	ORI  R23,BYTE4(@0)
                 	.ENDM
                 
                 	.MACRO __ORD2N
                 	ORI  R26,LOW(@0)
                 	ORI  R27,HIGH(@0)
                 	ORI  R24,BYTE3(@0)
                 	ORI  R25,BYTE4(@0)
                 	.ENDM
                 
                 	.MACRO __DELAY_USB
                 	LDI  R24,LOW(@0)
                 __DELAY_USB_LOOP:
                 	DEC  R24
                 	BRNE __DELAY_USB_LOOP
                 	.ENDM
                 
                 	.MACRO __DELAY_USW
                 	LDI  R24,LOW(@0)
                 	LDI  R25,HIGH(@0)
                 __DELAY_USW_LOOP:
                 	SBIW R24,1
                 	BRNE __DELAY_USW_LOOP
                 	.ENDM
                 
                 	.MACRO __GETD1S
                 	LDD  R30,Y+@0
                 	LDD  R31,Y+@0+1
                 	LDD  R22,Y+@0+2
                 	LDD  R23,Y+@0+3
                 	.ENDM
                 
                 	.MACRO __GETD2S
                 	LDD  R26,Y+@0
                 	LDD  R27,Y+@0+1
                 	LDD  R24,Y+@0+2
                 	LDD  R25,Y+@0+3
                 	.ENDM
                 
                 	.MACRO __PUTD1S
                 	STD  Y+@0,R30
                 	STD  Y+@0+1,R31
                 	STD  Y+@0+2,R22
                 	STD  Y+@0+3,R23
                 	.ENDM
                 
                 	.MACRO __PUTD2S
                 	STD  Y+@0,R26
                 	STD  Y+@0+1,R27
                 	STD  Y+@0+2,R24
                 	STD  Y+@0+3,R25
                 	.ENDM
                 
                 	.MACRO __PUTDZ2
                 	STD  Z+@0,R26
                 	STD  Z+@0+1,R27
                 	STD  Z+@0+2,R24
                 	STD  Z+@0+3,R25
                 	.ENDM
                 
                 	.MACRO __CLRD1S
                 	STD  Y+@0,R30
                 	STD  Y+@0+1,R30
                 	STD  Y+@0+2,R30
                 	STD  Y+@0+3,R30
                 	.ENDM
                 
                 	.MACRO __POINTB1MN
                 	LDI  R30,LOW(@0+(@1))
                 	.ENDM
                 
                 	.MACRO __POINTW1MN
                 	LDI  R30,LOW(@0+(@1))
                 	LDI  R31,HIGH(@0+(@1))
                 	.ENDM
                 
                 	.MACRO __POINTD1M
                 	LDI  R30,LOW(@0)
                 	LDI  R31,HIGH(@0)
                 	LDI  R22,BYTE3(@0)
                 	LDI  R23,BYTE4(@0)
                 	.ENDM
                 
                 	.MACRO __POINTW1FN
                 	LDI  R30,LOW(2*@0+(@1))
                 	LDI  R31,HIGH(2*@0+(@1))
                 	.ENDM
                 
                 	.MACRO __POINTD1FN
                 	LDI  R30,LOW(2*@0+(@1))
                 	LDI  R31,HIGH(2*@0+(@1))
                 	LDI  R22,BYTE3(2*@0+(@1))
                 	LDI  R23,BYTE4(2*@0+(@1))
                 	.ENDM
                 
                 	.MACRO __POINTB2MN
                 	LDI  R26,LOW(@0+(@1))
                 	.ENDM
                 
                 	.MACRO __POINTW2MN
                 	LDI  R26,LOW(@0+(@1))
                 	LDI  R27,HIGH(@0+(@1))
                 	.ENDM
                 
                 	.MACRO __POINTW2FN
                 	LDI  R26,LOW(2*@0+(@1))
                 	LDI  R27,HIGH(2*@0+(@1))
                 	.ENDM
                 
                 	.MACRO __POINTD2FN
                 	LDI  R26,LOW(2*@0+(@1))
                 	LDI  R27,HIGH(2*@0+(@1))
                 	LDI  R24,BYTE3(2*@0+(@1))
                 	LDI  R25,BYTE4(2*@0+(@1))
                 	.ENDM
                 
                 	.MACRO __POINTBRM
                 	LDI  R@0,LOW(@1)
                 	.ENDM
                 
                 	.MACRO __POINTWRM
                 	LDI  R@0,LOW(@2)
                 	LDI  R@1,HIGH(@2)
                 	.ENDM
                 
                 	.MACRO __POINTBRMN
                 	LDI  R@0,LOW(@1+(@2))
                 	.ENDM
                 
                 	.MACRO __POINTWRMN
                 	LDI  R@0,LOW(@2+(@3))
                 	LDI  R@1,HIGH(@2+(@3))
                 	.ENDM
                 
                 	.MACRO __POINTWRFN
                 	LDI  R@0,LOW(@2*2+(@3))
                 	LDI  R@1,HIGH(@2*2+(@3))
                 	.ENDM
                 
                 	.MACRO __GETD1N
                 	LDI  R30,LOW(@0)
                 	LDI  R31,HIGH(@0)
                 	LDI  R22,BYTE3(@0)
                 	LDI  R23,BYTE4(@0)
                 	.ENDM
                 
                 	.MACRO __GETD2N
                 	LDI  R26,LOW(@0)
                 	LDI  R27,HIGH(@0)
                 	LDI  R24,BYTE3(@0)
                 	LDI  R25,BYTE4(@0)
                 	.ENDM
                 
                 	.MACRO __GETB1MN
                 	LDS  R30,@0+(@1)
                 	.ENDM
                 
                 	.MACRO __GETB1HMN
                 	LDS  R31,@0+(@1)
                 	.ENDM
                 
                 	.MACRO __GETW1MN
                 	LDS  R30,@0+(@1)
                 	LDS  R31,@0+(@1)+1
                 	.ENDM
                 
                 	.MACRO __GETD1MN
                 	LDS  R30,@0+(@1)
                 	LDS  R31,@0+(@1)+1
                 	LDS  R22,@0+(@1)+2
                 	LDS  R23,@0+(@1)+3
                 	.ENDM
                 
                 	.MACRO __GETBRMN
                 	LDS  R@0,@1+(@2)
                 	.ENDM
                 
                 	.MACRO __GETWRMN
                 	LDS  R@0,@2+(@3)
                 	LDS  R@1,@2+(@3)+1
                 	.ENDM
                 
                 	.MACRO __GETWRZ
                 	LDD  R@0,Z+@2
                 	LDD  R@1,Z+@2+1
                 	.ENDM
                 
                 	.MACRO __GETD2Z
                 	LDD  R26,Z+@0
                 	LDD  R27,Z+@0+1
                 	LDD  R24,Z+@0+2
                 	LDD  R25,Z+@0+3
                 	.ENDM
                 
                 	.MACRO __GETB2MN
                 	LDS  R26,@0+(@1)
                 	.ENDM
                 
                 	.MACRO __GETW2MN
                 	LDS  R26,@0+(@1)
                 	LDS  R27,@0+(@1)+1
                 	.ENDM
                 
                 	.MACRO __GETD2MN
                 	LDS  R26,@0+(@1)
                 	LDS  R27,@0+(@1)+1
                 	LDS  R24,@0+(@1)+2
                 	LDS  R25,@0+(@1)+3
                 	.ENDM
                 
                 	.MACRO __PUTB1MN
                 	STS  @0+(@1),R30
                 	.ENDM
                 
                 	.MACRO __PUTW1MN
                 	STS  @0+(@1),R30
                 	STS  @0+(@1)+1,R31
                 	.ENDM
                 
                 	.MACRO __PUTD1MN
                 	STS  @0+(@1),R30
                 	STS  @0+(@1)+1,R31
                 	STS  @0+(@1)+2,R22
                 	STS  @0+(@1)+3,R23
                 	.ENDM
                 
                 	.MACRO __PUTB1EN
                 	LDI  R26,LOW(@0+(@1))
                 	LDI  R27,HIGH(@0+(@1))
                 	CALL __EEPROMWRB
                 	.ENDM
                 
                 	.MACRO __PUTW1EN
                 	LDI  R26,LOW(@0+(@1))
                 	LDI  R27,HIGH(@0+(@1))
                 	CALL __EEPROMWRW
                 	.ENDM
                 
                 	.MACRO __PUTD1EN
                 	LDI  R26,LOW(@0+(@1))
                 	LDI  R27,HIGH(@0+(@1))
                 	CALL __EEPROMWRD
                 	.ENDM
                 
                 	.MACRO __PUTBR0MN
                 	STS  @0+(@1),R0
                 	.ENDM
                 
                 	.MACRO __PUTBMRN
                 	STS  @0+(@1),R@2
                 	.ENDM
                 
                 	.MACRO __PUTWMRN
                 	STS  @0+(@1),R@2
                 	STS  @0+(@1)+1,R@3
                 	.ENDM
                 
                 	.MACRO __PUTBZR
                 	STD  Z+@1,R@0
                 	.ENDM
                 
                 	.MACRO __PUTWZR
                 	STD  Z+@2,R@0
                 	STD  Z+@2+1,R@1
                 	.ENDM
                 
                 	.MACRO __GETW1R
                 	MOV  R30,R@0
                 	MOV  R31,R@1
                 	.ENDM
                 
                 	.MACRO __GETW2R
                 	MOV  R26,R@0
                 	MOV  R27,R@1
                 	.ENDM
                 
                 	.MACRO __GETWRN
                 	LDI  R@0,LOW(@2)
                 	LDI  R@1,HIGH(@2)
                 	.ENDM
                 
                 	.MACRO __PUTW1R
                 	MOV  R@0,R30
                 	MOV  R@1,R31
                 	.ENDM
                 
                 	.MACRO __PUTW2R
                 	MOV  R@0,R26
                 	MOV  R@1,R27
                 	.ENDM
                 
                 	.MACRO __ADDWRN
                 	SUBI R@0,LOW(-@2)
                 	SBCI R@1,HIGH(-@2)
                 	.ENDM
                 
                 	.MACRO __ADDWRR
                 	ADD  R@0,R@2
                 	ADC  R@1,R@3
                 	.ENDM
                 
                 	.MACRO __SUBWRN
                 	SUBI R@0,LOW(@2)
                 	SBCI R@1,HIGH(@2)
                 	.ENDM
                 
                 	.MACRO __SUBWRR
                 	SUB  R@0,R@2
                 	SBC  R@1,R@3
                 	.ENDM
                 
                 	.MACRO __ANDWRN
                 	ANDI R@0,LOW(@2)
                 	ANDI R@1,HIGH(@2)
                 	.ENDM
                 
                 	.MACRO __ANDWRR
                 	AND  R@0,R@2
                 	AND  R@1,R@3
                 	.ENDM
                 
                 	.MACRO __ORWRN
                 	ORI  R@0,LOW(@2)
                 	ORI  R@1,HIGH(@2)
                 	.ENDM
                 
                 	.MACRO __ORWRR
                 	OR   R@0,R@2
                 	OR   R@1,R@3
                 	.ENDM
                 
                 	.MACRO __EORWRR
                 	EOR  R@0,R@2
                 	EOR  R@1,R@3
                 	.ENDM
                 
                 	.MACRO __GETWRS
                 	LDD  R@0,Y+@2
                 	LDD  R@1,Y+@2+1
                 	.ENDM
                 
                 	.MACRO __PUTBSR
                 	STD  Y+@1,R@0
                 	.ENDM
                 
                 	.MACRO __PUTWSR
                 	STD  Y+@2,R@0
                 	STD  Y+@2+1,R@1
                 	.ENDM
                 
                 	.MACRO __MOVEWRR
                 	MOV  R@0,R@2
                 	MOV  R@1,R@3
                 	.ENDM
                 
                 	.MACRO __INWR
                 	IN   R@0,@2
                 	IN   R@1,@2+1
                 	.ENDM
                 
                 	.MACRO __OUTWR
                 	OUT  @2+1,R@1
                 	OUT  @2,R@0
                 	.ENDM
                 
                 	.MACRO __CALL1MN
                 	LDS  R30,@0+(@1)
                 	LDS  R31,@0+(@1)+1
                 	ICALL
                 	.ENDM
                 
                 	.MACRO __CALL1FN
                 	LDI  R30,LOW(2*@0+(@1))
                 	LDI  R31,HIGH(2*@0+(@1))
                 	CALL __GETW1PF
                 	ICALL
                 	.ENDM
                 
                 	.MACRO __CALL2EN
                 	PUSH R26
                 	PUSH R27
                 	LDI  R26,LOW(@0+(@1))
                 	LDI  R27,HIGH(@0+(@1))
                 	CALL __EEPROMRDW
                 	POP  R27
                 	POP  R26
                 	ICALL
                 	.ENDM
                 
                 	.MACRO __CALL2EX
                 	SUBI R26,LOW(-@0)
                 	SBCI R27,HIGH(-@0)
                 	CALL __EEPROMRDD
                 	ICALL
                 	.ENDM
                 
                 	.MACRO __GETW1STACK
                 	IN   R30,SPL
                 	IN   R31,SPH
                 	ADIW R30,@0+1
                 	LD   R0,Z+
                 	LD   R31,Z
                 	MOV  R30,R0
                 	.ENDM
                 
                 	.MACRO __GETD1STACK
                 	IN   R30,SPL
                 	IN   R31,SPH
                 	ADIW R30,@0+1
                 	LD   R0,Z+
                 	LD   R1,Z+
                 	LD   R22,Z
                 	MOVW R30,R0
                 	.ENDM
                 
                 	.MACRO __NBST
                 	BST  R@0,@1
                 	IN   R30,SREG
                 	LDI  R31,0x40
                 	EOR  R30,R31
                 	OUT  SREG,R30
                 	.ENDM
                 
                 
                 	.MACRO __PUTB1SN
                 	LDD  R26,Y+@0
                 	LDD  R27,Y+@0+1
                 	SUBI R26,LOW(-@1)
                 	SBCI R27,HIGH(-@1)
                 	ST   X,R30
                 	.ENDM
                 
                 	.MACRO __PUTW1SN
                 	LDD  R26,Y+@0
                 	LDD  R27,Y+@0+1
                 	SUBI R26,LOW(-@1)
                 	SBCI R27,HIGH(-@1)
                 	ST   X+,R30
                 	ST   X,R31
                 	.ENDM
                 
                 	.MACRO __PUTD1SN
                 	LDD  R26,Y+@0
                 	LDD  R27,Y+@0+1
                 	SUBI R26,LOW(-@1)
                 	SBCI R27,HIGH(-@1)
                 	CALL __PUTDP1
                 	.ENDM
                 
                 	.MACRO __PUTB1SNS
                 	LDD  R26,Y+@0
                 	LDD  R27,Y+@0+1
                 	ADIW R26,@1
                 	ST   X,R30
                 	.ENDM
                 
                 	.MACRO __PUTW1SNS
                 	LDD  R26,Y+@0
                 	LDD  R27,Y+@0+1
                 	ADIW R26,@1
                 	ST   X+,R30
                 	ST   X,R31
                 	.ENDM
                 
                 	.MACRO __PUTD1SNS
                 	LDD  R26,Y+@0
                 	LDD  R27,Y+@0+1
                 	ADIW R26,@1
                 	CALL __PUTDP1
                 	.ENDM
                 
                 	.MACRO __PUTB1PMN
                 	LDS  R26,@0
                 	LDS  R27,@0+1
                 	SUBI R26,LOW(-@1)
                 	SBCI R27,HIGH(-@1)
                 	ST   X,R30
                 	.ENDM
                 
                 	.MACRO __PUTW1PMN
                 	LDS  R26,@0
                 	LDS  R27,@0+1
                 	SUBI R26,LOW(-@1)
                 	SBCI R27,HIGH(-@1)
                 	ST   X+,R30
                 	ST   X,R31
                 	.ENDM
                 
                 	.MACRO __PUTD1PMN
                 	LDS  R26,@0
                 	LDS  R27,@0+1
                 	SUBI R26,LOW(-@1)
                 	SBCI R27,HIGH(-@1)
                 	CALL __PUTDP1
                 	.ENDM
                 
                 	.MACRO __PUTB1PMNS
                 	LDS  R26,@0
                 	LDS  R27,@0+1
                 	ADIW R26,@1
                 	ST   X,R30
                 	.ENDM
                 
                 	.MACRO __PUTW1PMNS
                 	LDS  R26,@0
                 	LDS  R27,@0+1
                 	ADIW R26,@1
                 	ST   X+,R30
                 	ST   X,R31
                 	.ENDM
                 
                 	.MACRO __PUTD1PMNS
                 	LDS  R26,@0
                 	LDS  R27,@0+1
                 	ADIW R26,@1
                 	CALL __PUTDP1
                 	.ENDM
                 
                 	.MACRO __PUTB1RN
                 	MOVW R26,R@0
                 	SUBI R26,LOW(-@1)
                 	SBCI R27,HIGH(-@1)
                 	ST   X,R30
                 	.ENDM
                 
                 	.MACRO __PUTW1RN
                 	MOVW R26,R@0
                 	SUBI R26,LOW(-@1)
                 	SBCI R27,HIGH(-@1)
                 	ST   X+,R30
                 	ST   X,R31
                 	.ENDM
                 
                 	.MACRO __PUTD1RN
                 	MOVW R26,R@0
                 	SUBI R26,LOW(-@1)
                 	SBCI R27,HIGH(-@1)
                 	CALL __PUTDP1
                 	.ENDM
                 
                 	.MACRO __PUTB1RNS
                 	MOVW R26,R@0
                 	ADIW R26,@1
                 	ST   X,R30
                 	.ENDM
                 
                 	.MACRO __PUTW1RNS
                 	MOVW R26,R@0
                 	ADIW R26,@1
                 	ST   X+,R30
                 	ST   X,R31
                 	.ENDM
                 
                 	.MACRO __PUTD1RNS
                 	MOVW R26,R@0
                 	ADIW R26,@1
                 	CALL __PUTDP1
                 	.ENDM
                 
                 	.MACRO __PUTB1RON
                 	MOV  R26,R@0
                 	MOV  R27,R@1
                 	SUBI R26,LOW(-@2)
                 	SBCI R27,HIGH(-@2)
                 	ST   X,R30
                 	.ENDM
                 
                 	.MACRO __PUTW1RON
                 	MOV  R26,R@0
                 	MOV  R27,R@1
                 	SUBI R26,LOW(-@2)
                 	SBCI R27,HIGH(-@2)
                 	ST   X+,R30
                 	ST   X,R31
                 	.ENDM
                 
                 	.MACRO __PUTD1RON
                 	MOV  R26,R@0
                 	MOV  R27,R@1
                 	SUBI R26,LOW(-@2)
                 	SBCI R27,HIGH(-@2)
                 	CALL __PUTDP1
                 	.ENDM
                 
                 	.MACRO __PUTB1RONS
                 	MOV  R26,R@0
                 	MOV  R27,R@1
                 	ADIW R26,@2
                 	ST   X,R30
                 	.ENDM
                 
                 	.MACRO __PUTW1RONS
                 	MOV  R26,R@0
                 	MOV  R27,R@1
                 	ADIW R26,@2
                 	ST   X+,R30
                 	ST   X,R31
                 	.ENDM
                 
                 	.MACRO __PUTD1RONS
                 	MOV  R26,R@0
                 	MOV  R27,R@1
                 	ADIW R26,@2
                 	CALL __PUTDP1
                 	.ENDM
                 
                 
                 	.MACRO __GETB1SX
                 	MOVW R30,R28
                 	SUBI R30,LOW(-@0)
                 	SBCI R31,HIGH(-@0)
                 	LD   R30,Z
                 	.ENDM
                 
                 	.MACRO __GETB1HSX
                 	MOVW R30,R28
                 	SUBI R30,LOW(-@0)
                 	SBCI R31,HIGH(-@0)
                 	LD   R31,Z
                 	.ENDM
                 
                 	.MACRO __GETW1SX
                 	MOVW R30,R28
                 	SUBI R30,LOW(-@0)
                 	SBCI R31,HIGH(-@0)
                 	LD   R0,Z+
                 	LD   R31,Z
                 	MOV  R30,R0
                 	.ENDM
                 
                 	.MACRO __GETD1SX
                 	MOVW R30,R28
                 	SUBI R30,LOW(-@0)
                 	SBCI R31,HIGH(-@0)
                 	LD   R0,Z+
                 	LD   R1,Z+
                 	LD   R22,Z+
                 	LD   R23,Z
                 	MOVW R30,R0
                 	.ENDM
                 
                 	.MACRO __GETB2SX
                 	MOVW R26,R28
                 	SUBI R26,LOW(-@0)
                 	SBCI R27,HIGH(-@0)
                 	LD   R26,X
                 	.ENDM
                 
                 	.MACRO __GETW2SX
                 	MOVW R26,R28
                 	SUBI R26,LOW(-@0)
                 	SBCI R27,HIGH(-@0)
                 	LD   R0,X+
                 	LD   R27,X
                 	MOV  R26,R0
                 	.ENDM
                 
                 	.MACRO __GETD2SX
                 	MOVW R26,R28
                 	SUBI R26,LOW(-@0)
                 	SBCI R27,HIGH(-@0)
                 	LD   R0,X+
                 	LD   R1,X+
                 	LD   R24,X+
                 	LD   R25,X
                 	MOVW R26,R0
                 	.ENDM
                 
                 	.MACRO __GETBRSX
                 	MOVW R30,R28
                 	SUBI R30,LOW(-@1)
                 	SBCI R31,HIGH(-@1)
                 	LD   R@0,Z
                 	.ENDM
                 
                 	.MACRO __GETWRSX
                 	MOVW R30,R28
                 	SUBI R30,LOW(-@2)
                 	SBCI R31,HIGH(-@2)
                 	LD   R@0,Z+
                 	LD   R@1,Z
                 	.ENDM
                 
                 	.MACRO __GETBRSX2
                 	MOVW R26,R28
                 	SUBI R26,LOW(-@1)
                 	SBCI R27,HIGH(-@1)
                 	LD   R@0,X
                 	.ENDM
                 
                 	.MACRO __GETWRSX2
                 	MOVW R26,R28
                 	SUBI R26,LOW(-@2)
                 	SBCI R27,HIGH(-@2)
                 	LD   R@0,X+
                 	LD   R@1,X
                 	.ENDM
                 
                 	.MACRO __LSLW8SX
                 	MOVW R30,R28
                 	SUBI R30,LOW(-@0)
                 	SBCI R31,HIGH(-@0)
                 	LD   R31,Z
                 	CLR  R30
                 	.ENDM
                 
                 	.MACRO __PUTB1SX
                 	MOVW R26,R28
                 	SUBI R26,LOW(-@0)
                 	SBCI R27,HIGH(-@0)
                 	ST   X,R30
                 	.ENDM
                 
                 	.MACRO __PUTW1SX
                 	MOVW R26,R28
                 	SUBI R26,LOW(-@0)
                 	SBCI R27,HIGH(-@0)
                 	ST   X+,R30
                 	ST   X,R31
                 	.ENDM
                 
                 	.MACRO __PUTD1SX
                 	MOVW R26,R28
                 	SUBI R26,LOW(-@0)
                 	SBCI R27,HIGH(-@0)
                 	ST   X+,R30
                 	ST   X+,R31
                 	ST   X+,R22
                 	ST   X,R23
                 	.ENDM
                 
                 	.MACRO __CLRW1SX
                 	MOVW R26,R28
                 	SUBI R26,LOW(-@0)
                 	SBCI R27,HIGH(-@0)
                 	ST   X+,R30
                 	ST   X,R30
                 	.ENDM
                 
                 	.MACRO __CLRD1SX
                 	MOVW R26,R28
                 	SUBI R26,LOW(-@0)
                 	SBCI R27,HIGH(-@0)
                 	ST   X+,R30
                 	ST   X+,R30
                 	ST   X+,R30
                 	ST   X,R30
                 	.ENDM
                 
                 	.MACRO __PUTB2SX
                 	MOVW R30,R28
                 	SUBI R30,LOW(-@0)
                 	SBCI R31,HIGH(-@0)
                 	ST   Z,R26
                 	.ENDM
                 
                 	.MACRO __PUTW2SX
                 	MOVW R30,R28
                 	SUBI R30,LOW(-@0)
                 	SBCI R31,HIGH(-@0)
                 	ST   Z+,R26
                 	ST   Z,R27
                 	.ENDM
                 
                 	.MACRO __PUTD2SX
                 	MOVW R30,R28
                 	SUBI R30,LOW(-@0)
                 	SBCI R31,HIGH(-@0)
                 	ST   Z+,R26
                 	ST   Z+,R27
                 	ST   Z+,R24
                 	ST   Z,R25
                 	.ENDM
                 
                 	.MACRO __PUTBSRX
                 	MOVW R30,R28
                 	SUBI R30,LOW(-@1)
                 	SBCI R31,HIGH(-@1)
                 	ST   Z,R@0
                 	.ENDM
                 
                 	.MACRO __PUTWSRX
                 	MOVW R30,R28
                 	SUBI R30,LOW(-@2)
                 	SBCI R31,HIGH(-@2)
                 	ST   Z+,R@0
                 	ST   Z,R@1
                 	.ENDM
                 
                 	.MACRO __PUTB1SNX
                 	MOVW R26,R28
                 	SUBI R26,LOW(-@0)
                 	SBCI R27,HIGH(-@0)
                 	LD   R0,X+
                 	LD   R27,X
                 	MOV  R26,R0
                 	SUBI R26,LOW(-@1)
                 	SBCI R27,HIGH(-@1)
                 	ST   X,R30
                 	.ENDM
                 
                 	.MACRO __PUTW1SNX
                 	MOVW R26,R28
                 	SUBI R26,LOW(-@0)
                 	SBCI R27,HIGH(-@0)
                 	LD   R0,X+
                 	LD   R27,X
                 	MOV  R26,R0
                 	SUBI R26,LOW(-@1)
                 	SBCI R27,HIGH(-@1)
                 	ST   X+,R30
                 	ST   X,R31
                 	.ENDM
                 
                 	.MACRO __PUTD1SNX
                 	MOVW R26,R28
                 	SUBI R26,LOW(-@0)
                 	SBCI R27,HIGH(-@0)
                 	LD   R0,X+
                 	LD   R27,X
                 	MOV  R26,R0
                 	SUBI R26,LOW(-@1)
                 	SBCI R27,HIGH(-@1)
                 	ST   X+,R30
                 	ST   X+,R31
                 	ST   X+,R22
                 	ST   X,R23
                 	.ENDM
                 
                 	.MACRO __MULBRR
                 	MULS R@0,R@1
                 	MOVW R30,R0
                 	.ENDM
                 
                 	.MACRO __MULBRRU
                 	MUL  R@0,R@1
                 	MOVW R30,R0
                 	.ENDM
                 
                 	.MACRO __MULBRR0
                 	MULS R@0,R@1
                 	.ENDM
                 
                 	.MACRO __MULBRRU0
                 	MUL  R@0,R@1
                 	.ENDM
                 
                 	.MACRO __MULBNWRU
                 	LDI  R26,@2
                 	MUL  R26,R@0
                 	MOVW R30,R0
                 	MUL  R26,R@1
                 	ADD  R31,R0
                 	.ENDM
                 
                 ;NAME DEFINITIONS FOR GLOBAL VARIABLES ALLOCATED TO REGISTERS
                 	.DEF _LedQ=R4
                 	.DEF _LedQ_msb=R5
                 	.DEF _rms=R6
                 	.DEF _rms_msb=R7
                 	.DEF _SKZ_1=R8
                 	.DEF _SKZ_1_msb=R9
                 	.DEF _SKZ_2=R10
                 	.DEF _SKZ_2_msb=R11
                 	.DEF _SKZ1toSKZ2=R12
                 	.DEF _SKZ1toSKZ2_msb=R13
                 
                 	.CSEG
                 	.ORG 0x00
                 
                 ;START OF CODE MARKER
                 __START_OF_CODE:
                 
                 ;INTERRUPT VECTORS
000000 940c 0246 	JMP  __RESET
000002 940c 0000 	JMP  0x00
000004 940c 0000 	JMP  0x00
000006 940c 0000 	JMP  0x00
000008 940c 0000 	JMP  0x00
00000a 940c 0000 	JMP  0x00
00000c 940c 0000 	JMP  0x00
00000e 940c 0000 	JMP  0x00
000010 940c 0000 	JMP  0x00
000012 940c 0000 	JMP  0x00
000014 940c 0bb3 	JMP  _timer2_ovf_isr
000016 940c 0000 	JMP  0x00
000018 940c 0000 	JMP  0x00
00001a 940c 0000 	JMP  0x00
00001c 940c 0000 	JMP  0x00
00001e 940c 0000 	JMP  0x00
000020 940c 07aa 	JMP  _timer0_ovf_isr
000022 940c 07d1 	JMP  _spi_isr
000024 940c 02b7 	JMP  _usart0_rx_isr
000026 940c 0000 	JMP  0x00
000028 940c 0777 	JMP  _usart0_tx_isr
00002a 940c 0000 	JMP  0x00
00002c 940c 0000 	JMP  0x00
00002e 940c 0000 	JMP  0x00
000030 940c 0000 	JMP  0x00
000032 940c 0000 	JMP  0x00
000034 940c 0000 	JMP  0x00
000036 940c 0000 	JMP  0x00
000038 940c 0000 	JMP  0x00
00003a 940c 0b90 	JMP  _timer3_ovf_isr
00003c 940c 0279 	JMP  _usart1_rx_isr
00003e 940c 0000 	JMP  0x00
000040 940c 0745 	JMP  _usart1_tx_isr
000042 940c 0000 	JMP  0x00
000044 940c 0000 	JMP  0x00
                 
                 _tbl10_G101:
000046 2710
000047 03e8
000048 0064
000049 000a      	.DB  0x10,0x27,0xE8,0x3,0x64,0x0,0xA,0x0
00004a 0001      	.DB  0x1,0x0
                 _tbl16_G101:
00004b 1000
00004c 0100
00004d 0010
00004e 0001      	.DB  0x0,0x10,0x0,0x1,0x10,0x0,0x1,0x0
                 
                 ;REGISTER BIT VARIABLES INITIALIZATION
                 __REG_BIT_VARS:
00004f 0000      	.DW  0x0000
                 
                 ;GLOBAL REGISTER VARIABLES INITIALIZATION
                 __REG_VARS:
000050 0000
000051 0000      	.DB  0x0,0x0,0x0,0x0
                 
                 _0x3:
L:\work\σκημ\ακθ_2012\bki.asm(1159): warning: .cseg .db misalignment - padding zero byte
000052 0001      	.DB  0x1
                 _0x4:
L:\work\σκημ\ακθ_2012\bki.asm(1161): warning: .cseg .db misalignment - padding zero byte
000053 0001      	.DB  0x1
                 _0x5:
L:\work\σκημ\ακθ_2012\bki.asm(1163): warning: .cseg .db misalignment - padding zero byte
000054 0001      	.DB  0x1
                 _0x6:
L:\work\σκημ\ακθ_2012\bki.asm(1165): warning: .cseg .db misalignment - padding zero byte
000055 0001      	.DB  0x1
                 _0x7:
L:\work\σκημ\ακθ_2012\bki.asm(1167): warning: .cseg .db misalignment - padding zero byte
000056 001e      	.DB  0x1E
                 _0x8:
L:\work\σκημ\ακθ_2012\bki.asm(1169): warning: .cseg .db misalignment - padding zero byte
000057 0028      	.DB  0x28
                 _0x9:
L:\work\σκημ\ακθ_2012\bki.asm(1171): warning: .cseg .db misalignment - padding zero byte
000058 001e      	.DB  0x1E
                 _0xA:
L:\work\σκημ\ακθ_2012\bki.asm(1173): warning: .cseg .db misalignment - padding zero byte
000059 0003      	.DB  0x3
                 _0xB:
L:\work\σκημ\ακθ_2012\bki.asm(1175): warning: .cseg .db misalignment - padding zero byte
00005a 0001      	.DB  0x1
                 _0xC:
00005b 3491      	.DB  0x91,0x34
                 _0xD:
00005c 0000
00005d c1c0
00005e 81c1
00005f 4001      	.DB  0x0,0x0,0xC0,0xC1,0xC1,0x81,0x1,0x40
000060 01c3
000061 c003
000062 8002
000063 41c2      	.DB  0xC3,0x1,0x3,0xC0,0x2,0x80,0xC2,0x41
000064 01c6
000065 c006
000066 8007
000067 41c7      	.DB  0xC6,0x1,0x6,0xC0,0x7,0x80,0xC7,0x41
000068 0005
000069 c1c5
00006a 81c4
00006b 4004      	.DB  0x5,0x0,0xC5,0xC1,0xC4,0x81,0x4,0x40
00006c 01cc
00006d c00c
00006e 800d
00006f 41cd      	.DB  0xCC,0x1,0xC,0xC0,0xD,0x80,0xCD,0x41
000070 000f
000071 c1cf
000072 81ce
000073 400e      	.DB  0xF,0x0,0xCF,0xC1,0xCE,0x81,0xE,0x40
000074 000a
000075 c1ca
000076 81cb
000077 400b      	.DB  0xA,0x0,0xCA,0xC1,0xCB,0x81,0xB,0x40
000078 01c9
000079 c009
00007a 8008
00007b 41c8      	.DB  0xC9,0x1,0x9,0xC0,0x8,0x80,0xC8,0x41
00007c 01d8
00007d c018
00007e 8019
00007f 41d9      	.DB  0xD8,0x1,0x18,0xC0,0x19,0x80,0xD9,0x41
000080 001b
000081 c1db
000082 81da
000083 401a      	.DB  0x1B,0x0,0xDB,0xC1,0xDA,0x81,0x1A,0x40
000084 001e
000085 c1de
000086 81df
000087 401f      	.DB  0x1E,0x0,0xDE,0xC1,0xDF,0x81,0x1F,0x40
000088 01dd
000089 c01d
00008a 801c
00008b 41dc      	.DB  0xDD,0x1,0x1D,0xC0,0x1C,0x80,0xDC,0x41
00008c 0014
00008d c1d4
00008e 81d5
00008f 4015      	.DB  0x14,0x0,0xD4,0xC1,0xD5,0x81,0x15,0x40
000090 01d7
000091 c017
000092 8016
000093 41d6      	.DB  0xD7,0x1,0x17,0xC0,0x16,0x80,0xD6,0x41
000094 01d2
000095 c012
000096 8013
000097 41d3      	.DB  0xD2,0x1,0x12,0xC0,0x13,0x80,0xD3,0x41
000098 0011
000099 c1d1
00009a 81d0
00009b 4010      	.DB  0x11,0x0,0xD1,0xC1,0xD0,0x81,0x10,0x40
00009c 01f0
00009d c030
00009e 8031
00009f 41f1      	.DB  0xF0,0x1,0x30,0xC0,0x31,0x80,0xF1,0x41
0000a0 0033
0000a1 c1f3
0000a2 81f2
0000a3 4032      	.DB  0x33,0x0,0xF3,0xC1,0xF2,0x81,0x32,0x40
0000a4 0036
0000a5 c1f6
0000a6 81f7
0000a7 4037      	.DB  0x36,0x0,0xF6,0xC1,0xF7,0x81,0x37,0x40
0000a8 01f5
0000a9 c035
0000aa 8034
0000ab 41f4      	.DB  0xF5,0x1,0x35,0xC0,0x34,0x80,0xF4,0x41
0000ac 003c
0000ad c1fc
0000ae 81fd
0000af 403d      	.DB  0x3C,0x0,0xFC,0xC1,0xFD,0x81,0x3D,0x40
0000b0 01ff
0000b1 c03f
0000b2 803e
0000b3 41fe      	.DB  0xFF,0x1,0x3F,0xC0,0x3E,0x80,0xFE,0x41
0000b4 01fa
0000b5 c03a
0000b6 803b
0000b7 41fb      	.DB  0xFA,0x1,0x3A,0xC0,0x3B,0x80,0xFB,0x41
0000b8 0039
0000b9 c1f9
0000ba 81f8
0000bb 4038      	.DB  0x39,0x0,0xF9,0xC1,0xF8,0x81,0x38,0x40
0000bc 0028
0000bd c1e8
0000be 81e9
0000bf 4029      	.DB  0x28,0x0,0xE8,0xC1,0xE9,0x81,0x29,0x40
0000c0 01eb
0000c1 c02b
0000c2 802a
0000c3 41ea      	.DB  0xEB,0x1,0x2B,0xC0,0x2A,0x80,0xEA,0x41
0000c4 01ee
0000c5 c02e
0000c6 802f
0000c7 41ef      	.DB  0xEE,0x1,0x2E,0xC0,0x2F,0x80,0xEF,0x41
0000c8 002d
0000c9 c1ed
0000ca 81ec
0000cb 402c      	.DB  0x2D,0x0,0xED,0xC1,0xEC,0x81,0x2C,0x40
0000cc 01e4
0000cd c024
0000ce 8025
0000cf 41e5      	.DB  0xE4,0x1,0x24,0xC0,0x25,0x80,0xE5,0x41
0000d0 0027
0000d1 c1e7
0000d2 81e6
0000d3 4026      	.DB  0x27,0x0,0xE7,0xC1,0xE6,0x81,0x26,0x40
0000d4 0022
0000d5 c1e2
0000d6 81e3
0000d7 4023      	.DB  0x22,0x0,0xE2,0xC1,0xE3,0x81,0x23,0x40
0000d8 01e1
0000d9 c021
0000da 8020
0000db 41e0      	.DB  0xE1,0x1,0x21,0xC0,0x20,0x80,0xE0,0x41
0000dc 01a0
0000dd c060
0000de 8061
0000df 41a1      	.DB  0xA0,0x1,0x60,0xC0,0x61,0x80,0xA1,0x41
0000e0 0063
0000e1 c1a3
0000e2 81a2
0000e3 4062      	.DB  0x63,0x0,0xA3,0xC1,0xA2,0x81,0x62,0x40
0000e4 0066
0000e5 c1a6
0000e6 81a7
0000e7 4067      	.DB  0x66,0x0,0xA6,0xC1,0xA7,0x81,0x67,0x40
0000e8 01a5
0000e9 c065
0000ea 8064
0000eb 41a4      	.DB  0xA5,0x1,0x65,0xC0,0x64,0x80,0xA4,0x41
0000ec 006c
0000ed c1ac
0000ee 81ad
0000ef 406d      	.DB  0x6C,0x0,0xAC,0xC1,0xAD,0x81,0x6D,0x40
0000f0 01af
0000f1 c06f
0000f2 806e
0000f3 41ae      	.DB  0xAF,0x1,0x6F,0xC0,0x6E,0x80,0xAE,0x41
0000f4 01aa
0000f5 c06a
0000f6 806b
0000f7 41ab      	.DB  0xAA,0x1,0x6A,0xC0,0x6B,0x80,0xAB,0x41
0000f8 0069
0000f9 c1a9
0000fa 81a8
0000fb 4068      	.DB  0x69,0x0,0xA9,0xC1,0xA8,0x81,0x68,0x40
0000fc 0078
0000fd c1b8
0000fe 81b9
0000ff 4079      	.DB  0x78,0x0,0xB8,0xC1,0xB9,0x81,0x79,0x40
000100 01bb
000101 c07b
000102 807a
000103 41ba      	.DB  0xBB,0x1,0x7B,0xC0,0x7A,0x80,0xBA,0x41
000104 01be
000105 c07e
000106 807f
000107 41bf      	.DB  0xBE,0x1,0x7E,0xC0,0x7F,0x80,0xBF,0x41
000108 007d
000109 c1bd
00010a 81bc
00010b 407c      	.DB  0x7D,0x0,0xBD,0xC1,0xBC,0x81,0x7C,0x40
00010c 01b4
00010d c074
00010e 8075
00010f 41b5      	.DB  0xB4,0x1,0x74,0xC0,0x75,0x80,0xB5,0x41
000110 0077
000111 c1b7
000112 81b6
000113 4076      	.DB  0x77,0x0,0xB7,0xC1,0xB6,0x81,0x76,0x40
000114 0072
000115 c1b2
000116 81b3
000117 4073      	.DB  0x72,0x0,0xB2,0xC1,0xB3,0x81,0x73,0x40
000118 01b1
000119 c071
00011a 8070
00011b 41b0      	.DB  0xB1,0x1,0x71,0xC0,0x70,0x80,0xB0,0x41
00011c 0050
00011d c190
00011e 8191
00011f 4051      	.DB  0x50,0x0,0x90,0xC1,0x91,0x81,0x51,0x40
000120 0193
000121 c053
000122 8052
000123 4192      	.DB  0x93,0x1,0x53,0xC0,0x52,0x80,0x92,0x41
000124 0196
000125 c056
000126 8057
000127 4197      	.DB  0x96,0x1,0x56,0xC0,0x57,0x80,0x97,0x41
000128 0055
000129 c195
00012a 8194
00012b 4054      	.DB  0x55,0x0,0x95,0xC1,0x94,0x81,0x54,0x40
00012c 019c
00012d c05c
00012e 805d
00012f 419d      	.DB  0x9C,0x1,0x5C,0xC0,0x5D,0x80,0x9D,0x41
000130 005f
000131 c19f
000132 819e
000133 405e      	.DB  0x5F,0x0,0x9F,0xC1,0x9E,0x81,0x5E,0x40
000134 005a
000135 c19a
000136 819b
000137 405b      	.DB  0x5A,0x0,0x9A,0xC1,0x9B,0x81,0x5B,0x40
000138 0199
000139 c059
00013a 8058
00013b 4198      	.DB  0x99,0x1,0x59,0xC0,0x58,0x80,0x98,0x41
00013c 0188
00013d c048
00013e 8049
00013f 4189      	.DB  0x88,0x1,0x48,0xC0,0x49,0x80,0x89,0x41
000140 004b
000141 c18b
000142 818a
000143 404a      	.DB  0x4B,0x0,0x8B,0xC1,0x8A,0x81,0x4A,0x40
000144 004e
000145 c18e
000146 818f
000147 404f      	.DB  0x4E,0x0,0x8E,0xC1,0x8F,0x81,0x4F,0x40
000148 018d
000149 c04d
00014a 804c
00014b 418c      	.DB  0x8D,0x1,0x4D,0xC0,0x4C,0x80,0x8C,0x41
00014c 0044
00014d c184
00014e 8185
00014f 4045      	.DB  0x44,0x0,0x84,0xC1,0x85,0x81,0x45,0x40
000150 0187
000151 c047
000152 8046
000153 4186      	.DB  0x87,0x1,0x47,0xC0,0x46,0x80,0x86,0x41
000154 0182
000155 c042
000156 8043
000157 4183      	.DB  0x82,0x1,0x42,0xC0,0x43,0x80,0x83,0x41
000158 0041
000159 c181
00015a 8180
00015b 4040      	.DB  0x41,0x0,0x81,0xC1,0x80,0x81,0x40,0x40
                 _0x0:
00015c 0a0d
00015d 6920
00015e 2066
00015f 6f79      	.DB  0xD,0xA,0x20,0x69,0x66,0x20,0x79,0x6F
000160 2075
000161 6177
000162 746e
000163 7420      	.DB  0x75,0x20,0x77,0x61,0x6E,0x74,0x20,0x74
000164 206f
000165 6573
000166 2074
000167 6f4d      	.DB  0x6F,0x20,0x73,0x65,0x74,0x20,0x4D,0x6F
000168 6264
000169 7375
00016a 6120
00016b 6464      	.DB  0x64,0x62,0x75,0x73,0x20,0x61,0x64,0x64
00016c 6572
00016d 7373
00016e 7020
00016f 656c      	.DB  0x72,0x65,0x73,0x73,0x20,0x70,0x6C,0x65
000170 7361
000171 2065
000172 7974
000173 6570      	.DB  0x61,0x73,0x65,0x20,0x74,0x79,0x70,0x65
000174 2720
000175 2761
000176 6c20
000177 7465      	.DB  0x20,0x27,0x61,0x27,0x20,0x6C,0x65,0x74
000178 6574
000179 2072
00017a 0a0d
00017b 0d00      	.DB  0x74,0x65,0x72,0x20,0xD,0xA,0x0,0xD
00017c 200a
00017d 6669
00017e 7920
00017f 756f      	.DB  0xA,0x20,0x69,0x66,0x20,0x79,0x6F,0x75
000180 7720
000181 6e61
000182 2074
000183 6f74      	.DB  0x20,0x77,0x61,0x6E,0x74,0x20,0x74,0x6F
000184 7320
000185 7465
000186 4120
000187 6576      	.DB  0x20,0x73,0x65,0x74,0x20,0x41,0x76,0x65
000188 6172
000189 6967
00018a 676e
00018b 6f20      	.DB  0x72,0x61,0x67,0x69,0x6E,0x67,0x20,0x6F
00018c 7475
00018d 7420
00018e 6d69
00018f 2065      	.DB  0x75,0x74,0x20,0x74,0x69,0x6D,0x65,0x20
000190 6176
000191 756c
000192 2065
000193 6c70      	.DB  0x76,0x61,0x6C,0x75,0x65,0x20,0x70,0x6C
000194 6165
000195 6573
000196 7420
000197 7079      	.DB  0x65,0x61,0x73,0x65,0x20,0x74,0x79,0x70
000198 2065
000199 7627
00019a 2027
00019b 656c      	.DB  0x65,0x20,0x27,0x76,0x27,0x20,0x6C,0x65
00019c 7474
00019d 7265
00019e 0d20
00019f 000a      	.DB  0x74,0x74,0x65,0x72,0x20,0xD,0xA,0x0
0001a0 0a0d
0001a1 6920
0001a2 2066
0001a3 6f79      	.DB  0xD,0xA,0x20,0x69,0x66,0x20,0x79,0x6F
0001a4 2075
0001a5 6177
0001a6 746e
0001a7 7420      	.DB  0x75,0x20,0x77,0x61,0x6E,0x74,0x20,0x74
0001a8 206f
0001a9 6573
0001aa 2074
0001ab 6874      	.DB  0x6F,0x20,0x73,0x65,0x74,0x20,0x74,0x68
0001ac 2065
0001ad 756e
0001ae 626d
0001af 7265      	.DB  0x65,0x20,0x6E,0x75,0x6D,0x62,0x65,0x72
0001b0 6f20
0001b1 2066
0001b2 6f77
0001b3 6b72      	.DB  0x20,0x6F,0x66,0x20,0x77,0x6F,0x72,0x6B
0001b4 6e69
0001b5 2067
0001b6 7266
0001b7 7165      	.DB  0x69,0x6E,0x67,0x20,0x66,0x72,0x65,0x71
0001b8 6575
0001b9 636e
0001ba 6569
0001bb 2073      	.DB  0x75,0x65,0x6E,0x63,0x69,0x65,0x73,0x20
0001bc 6c70
0001bd 6165
0001be 6573
0001bf 7420      	.DB  0x70,0x6C,0x65,0x61,0x73,0x65,0x20,0x74
0001c0 7079
0001c1 2065
0001c2 6627
0001c3 2027      	.DB  0x79,0x70,0x65,0x20,0x27,0x66,0x27,0x20
0001c4 656c
0001c5 7474
0001c6 7265
0001c7 0d20      	.DB  0x6C,0x65,0x74,0x74,0x65,0x72,0x20,0xD
0001c8 000a
0001c9 0a0d
0001ca 6920
0001cb 2066      	.DB  0xA,0x0,0xD,0xA,0x20,0x69,0x66,0x20
0001cc 6f79
0001cd 2075
0001ce 6177
0001cf 746e      	.DB  0x79,0x6F,0x75,0x20,0x77,0x61,0x6E,0x74
0001d0 7420
0001d1 206f
0001d2 6573
0001d3 2074      	.DB  0x20,0x74,0x6F,0x20,0x73,0x65,0x74,0x20
0001d4 6874
0001d5 2065
0001d6 696d
0001d7 696e      	.DB  0x74,0x68,0x65,0x20,0x6D,0x69,0x6E,0x69
0001d8 616d
0001d9 206c
0001da 4b53
0001db 205a      	.DB  0x6D,0x61,0x6C,0x20,0x53,0x4B,0x5A,0x20
0001dc 6176
0001dd 756c
0001de 2065
0001df 6e69      	.DB  0x76,0x61,0x6C,0x75,0x65,0x20,0x69,0x6E
0001e0 4120
0001e1 4344
0001e2 7520
0001e3 696e      	.DB  0x20,0x41,0x44,0x43,0x20,0x75,0x6E,0x69
0001e4 7374
0001e5 7020
0001e6 656c
0001e7 7361      	.DB  0x74,0x73,0x20,0x70,0x6C,0x65,0x61,0x73
0001e8 2065
0001e9 7974
0001ea 6570
0001eb 2720      	.DB  0x65,0x20,0x74,0x79,0x70,0x65,0x20,0x27
0001ec 276d
0001ed 6c20
0001ee 7465
0001ef 6574      	.DB  0x6D,0x27,0x20,0x6C,0x65,0x74,0x74,0x65
0001f0 2072
0001f1 0a0d
0001f2 0d00
0001f3 200a      	.DB  0x72,0x20,0xD,0xA,0x0,0xD,0xA,0x20
0001f4 6669
0001f5 7920
0001f6 756f
0001f7 7720      	.DB  0x69,0x66,0x20,0x79,0x6F,0x75,0x20,0x77
0001f8 6e61
0001f9 2074
0001fa 6f74
0001fb 6f20      	.DB  0x61,0x6E,0x74,0x20,0x74,0x6F,0x20,0x6F
0001fc 6576
0001fd 7672
0001fe 6569
0001ff 2077      	.DB  0x76,0x65,0x72,0x76,0x69,0x65,0x77,0x20
000200 6874
000201 2065
000202 7563
000203 7272      	.DB  0x74,0x68,0x65,0x20,0x63,0x75,0x72,0x72
000204 6e65
000205 2074
000206 6f63
000207 666e      	.DB  0x65,0x6E,0x74,0x20,0x63,0x6F,0x6E,0x66
000208 6769
000209 7275
00020a 7461
00020b 6f69      	.DB  0x69,0x67,0x75,0x72,0x61,0x74,0x69,0x6F
00020c 206e
00020d 7020
00020e 656c
00020f 7361      	.DB  0x6E,0x20,0x20,0x70,0x6C,0x65,0x61,0x73
000210 2065
000211 7974
000212 6570
000213 2720      	.DB  0x65,0x20,0x74,0x79,0x70,0x65,0x20,0x27
000214 276f
000215 6c20
000216 7465
000217 6574      	.DB  0x6F,0x27,0x20,0x6C,0x65,0x74,0x74,0x65
000218 2072
000219 0a0d
L:\work\σκημ\ακθ_2012\bki.asm(1291): warning: .cseg .db misalignment - padding zero byte
00021a 0000      	.DB  0x72,0x20,0xD,0xA,0x0
                 _0x2040060:
L:\work\σκημ\ακθ_2012\bki.asm(1293): warning: .cseg .db misalignment - padding zero byte
00021b 0001      	.DB  0x1
                 _0x2040000:
00021c 4e2d
00021d 4e41
00021e 4900
00021f 464e      	.DB  0x2D,0x4E,0x41,0x4E,0x0,0x49,0x4E,0x46
L:\work\σκημ\ακθ_2012\bki.asm(1296): warning: .cseg .db misalignment - padding zero byte
000220 0000      	.DB  0x0
                 
                 __GLOBAL_INI_TBL:
000221 0002      	.DW  0x02
000222 0002      	.DW  0x02
000223 009e      	.DW  __REG_BIT_VARS*2
                 
000224 0004      	.DW  0x04
000225 0004      	.DW  0x04
000226 00a0      	.DW  __REG_VARS*2
                 
000227 0001      	.DW  0x01
000228 058d      	.DW  _object_state
000229 00a6      	.DW  _0x4*2
                 
00022a 0001      	.DW  0x01
00022b 058e      	.DW  _SPI_tEnd
00022c 00a8      	.DW  _0x5*2
                 
00022d 0001      	.DW  0x01
00022e 058f      	.DW  _ModBusAddress
00022f 00aa      	.DW  _0x6*2
                 
000230 0001      	.DW  0x01
000231 0591      	.DW  _minimal_SKZ_val
000232 00ac      	.DW  _0x7*2
                 
000233 0001      	.DW  0x01
000234 0593      	.DW  _minimal_object_enabled_level
000235 00ae      	.DW  _0x8*2
                 
000236 0001      	.DW  0x01
000237 059f      	.DW  _AverTime_Value
000238 00b0      	.DW  _0x9*2
                 
000239 0001      	.DW  0x01
00023a 05b5      	.DW  _FrequencyQ
00023b 00b2      	.DW  _0xA*2
                 
00023c 0002      	.DW  0x02
00023d 05c1      	.DW  _DeviceID_G000
00023e 00b6      	.DW  _0xC*2
                 
00023f 0200      	.DW  0x200
000240 05c3      	.DW  _crctable_G000
000241 00b8      	.DW  _0xD*2
                 
000242 0001      	.DW  0x01
000243 094b      	.DW  __seed_G102
000244 0436      	.DW  _0x2040060*2
                 
                 _0xFFFFFFFF:
000245 0000      	.DW  0
                 
                 #define __GLOBAL_INI_TBL_PRESENT 1
                 
                 __RESET:
000246 94f8      	CLI
000247 27ee      	CLR  R30
000248 bbec      	OUT  EECR,R30
                 
                 ;INTERRUPT VECTORS ARE PLACED
                 ;AT THE START OF FLASH
000249 e0f1      	LDI  R31,1
00024a bff5      	OUT  MCUCR,R31
00024b bfe5      	OUT  MCUCR,R30
00024c 93e0 006c 	STS  XMCRB,R30
                 
                 ;DISABLE WATCHDOG
00024e e1f8      	LDI  R31,0x18
00024f bdf1      	OUT  WDTCR,R31
000250 bde1      	OUT  WDTCR,R30
                 
                 ;CLEAR R2-R14
000251 e08d      	LDI  R24,(14-2)+1
000252 e0a2      	LDI  R26,2
000253 27bb      	CLR  R27
                 __CLEAR_REG:
000254 93ed      	ST   X+,R30
000255 958a      	DEC  R24
000256 f7e9      	BRNE __CLEAR_REG
                 
                 ;CLEAR SRAM
000257 e080      	LDI  R24,LOW(__CLEAR_SRAM_SIZE)
000258 e190      	LDI  R25,HIGH(__CLEAR_SRAM_SIZE)
000259 e0a0      	LDI  R26,LOW(__SRAM_START)
00025a e0b1      	LDI  R27,HIGH(__SRAM_START)
                 __CLEAR_SRAM:
00025b 93ed      	ST   X+,R30
00025c 9701      	SBIW R24,1
00025d f7e9      	BRNE __CLEAR_SRAM
                 
                 ;GLOBAL VARIABLES INITIALIZATION
00025e e4e2      	LDI  R30,LOW(__GLOBAL_INI_TBL*2)
00025f e0f4      	LDI  R31,HIGH(__GLOBAL_INI_TBL*2)
                 __GLOBAL_INI_NEXT:
000260 9185      	LPM  R24,Z+
000261 9195      	LPM  R25,Z+
000262 9700      	SBIW R24,0
000263 f061      	BREQ __GLOBAL_INI_END
000264 91a5      	LPM  R26,Z+
000265 91b5      	LPM  R27,Z+
000266 9005      	LPM  R0,Z+
000267 9015      	LPM  R1,Z+
000268 01bf      	MOVW R22,R30
000269 01f0      	MOVW R30,R0
                 __GLOBAL_INI_LOOP:
00026a 9005      	LPM  R0,Z+
00026b 920d      	ST   X+,R0
00026c 9701      	SBIW R24,1
00026d f7e1      	BRNE __GLOBAL_INI_LOOP
00026e 01fb      	MOVW R30,R22
00026f cff0      	RJMP __GLOBAL_INI_NEXT
                 __GLOBAL_INI_END:
                 
000270 bf8b      	OUT  RAMPZ,R24
                 
                 ;HARDWARE STACK POINTER INITIALIZATION
000271 efef      	LDI  R30,LOW(__SRAM_END-__HEAP_SIZE)
000272 bfed      	OUT  SPL,R30
000273 e1e0      	LDI  R30,HIGH(__SRAM_END-__HEAP_SIZE)
000274 bfee      	OUT  SPH,R30
                 
                 ;DATA STACK POINTER INITIALIZATION
000275 e0c0      	LDI  R28,LOW(__SRAM_START+__DSTACK_SIZE)
000276 e0d5      	LDI  R29,HIGH(__SRAM_START+__DSTACK_SIZE)
                 
000277 940c 0f8e 	JMP  _main
                 
                 	.ESEG
                 	.ORG 0
                 
                 	.DSEG
                 	.ORG 0x500
                 
                 	.CSEG
                 ;/*****************************************************
                 ;CodeWizardAVR V1.24.5 Standard
                 ;
                 ;Project : 10χ/δ
                 ;Version :
                 ;Date    : 09.09.2008
                 ;
                 ;Chip type           : ATmega128L
                 ;Program type        : Application
                 ;Clock frequency     : 8,000000 MHz
                 ;Memory model        : Small
                 ;External SRAM size  : 0
                 ;Data Stack size     : 1024
                 ;*****************************************************/
                 ;#include <mega128.h>
                 	#ifndef __SLEEP_DEFINED__
                 	#define __SLEEP_DEFINED__
                 	.EQU __se_bit=0x20
                 	.EQU __sm_mask=0x1C
                 	.EQU __sm_powerdown=0x10
                 	.EQU __sm_powersave=0x18
                 	.EQU __sm_standby=0x14
                 	.EQU __sm_ext_standby=0x1C
                 	.EQU __sm_adc_noise_red=0x08
                 	.SET power_ctrl_reg=mcucr
                 	#endif
                 ;#include <delay.h>
                 ;#include <math.h>
                 ;#include <stdio.h>
                 ;
                 ;#define uart_slave_disable UCSR0B=0x00
                 ;#define transmitter_off UCSR0B=0x90
                 ;#define transmitter_on UCSR0B=0xD8
                 ;#define TX_slave_on  PORTE=PORTE|0b00000100
                 ;#define TX_slave_off PORTE=PORTE&0b11111011
                 ;#define TX_master_on   PORTD.4=1;
                 ;#define TX_master_off  PORTD.4=0;
                 ;#define testing_blink_on PORTC.0=1
                 ;#define testing_blink_off PORTC.0=0
                 ;#define led_01_on  PORTC.1=1
                 ;#define led_01_off PORTC.1=0
                 ;#define led_02_on  PORTC.2=1
                 ;#define led_02_off PORTC.2=0
                 ;#define led_03_on  PORTC.3=1
                 ;#define led_03_off PORTC.3=0
                 ;#define led_04_on  PORTC.4=1
                 ;#define led_04_off PORTC.4=0
                 ;#define led_05_on  PORTC.7=1
                 ;#define led_05_off PORTC.7=0
                 ;#define led_06_on  PORTC.6=1
                 ;#define led_06_off PORTC.6=0
                 ;#define led_07_on  PORTA.7=1
                 ;#define led_07_off PORTA.7=0
                 ;#define led_08_on  PORTA.6=1
                 ;#define led_08_off PORTA.6=0
                 ;#define led_09_on  PORTA.5=1
                 ;#define led_09_off PORTA.5=0
                 ;#define led_10_on  PORTA.4=1
                 ;#define led_10_off PORTA.4=0
                 ;#define led_11_on  PORTA.3=1
                 ;#define led_11_off PORTA.3=0
                 ;#define led_12_on  PORTA.1=1
                 ;#define led_12_off PORTA.1=0
                 ;#define led_13_on  PORTA.0=1
                 ;#define led_13_off PORTA.0=0
                 ;#define led_14_on  PORTF=PORTF|0b10000000
                 ;#define led_14_off PORTF=PORTF&0b01111111
                 ;#define led_15_on  PORTF=PORTF|0b00100000
                 ;#define led_15_off PORTF=PORTF&0b11011111
                 ;#define led_16_on  PORTF=PORTF|0b00001000
                 ;#define led_16_off PORTF=PORTF&0b11110111
                 ;#define led_17_on  PORTF=PORTF|0b00000010
                 ;#define led_17_off PORTF=PORTF&0b11111101
                 ;#define led_18_on  PORTF=PORTF|0b01000000
                 ;#define led_18_off PORTF=PORTF&0b10111111
                 ;#define led_19_on  PORTF=PORTF|0b00000001
                 ;#define led_19_off PORTF=PORTF&0b11111110
                 ;#define led_20_on  PORTF=PORTF|0b00000100
                 ;#define led_20_off PORTF=PORTF&0b11111011
                 ;#define led_calibration_on  PORTA.2=1
                 ;#define led_calibration_off PORTA.2=0
                 ;#define led_warning_on  PORTF=PORTF|0b00010000
                 ;#define led_warning_off PORTF=PORTF&0b11101111
                 ;#define key PINC.5
                 ;#define eeAddressSKZ1H 0x0400
                 ;#define eeAddressSKZ1L 0x0401
                 ;#define eeAddressSKZ2H 0x0402
                 ;#define eeAddressSKZ2L 0x0403
                 ;#define eeAddressSKZ1toSKZ2 0x0404
                 ;#define eeAdrSKZ1ar 0x0405
                 ;#define eeAdrSKZ2ar 0x042C
                 ;#define eeAddrCalibrFlag 0x04ff
                 ;#define eeAddressModBusAddr 0x0600
                 ;#define eeAddressAverTimeV 0x0601
                 ;#define eeAddressFreqQ 0x0602
                 ;#define eeAddressMINSKZH 0x0603
                 ;#define eeAddressMINSKZL 0x0604
                 ;#define eeAddressFirstFreq 0x0605
                 ;#define eeAddressMINOPLH 0x0606
                 ;#define eeAddressMINOPLL 0x0607
                 ;#define AvTimer_on {TCCR3A=0x00;TCCR3B=0x04;TCNT3H=0x81;TCNT3L=0x0B;ETIMSK=0x04;}
                 ;#define AvTimer_off {TCCR3A=0x00;TCCR3B=0x00;TCNT3H=0x00;TCNT3L=0x00;ETIMSK=0x00;}
                 ;#define ClearBuf_slave {rx_buffer_slave[0]=0;rx_buffer_slave[1]=0;rx_buffer_slave[2]=0;rx_buffer_slave[3]=0;rx_buffer_sl ...
                 ;#define ClearBuf_master{rx_buffer_master[0]=0;rx_buffer_master[1]=0;rx_buffer_master[2]=0;rx_buffer_master[3]=0;rx_buffe ...
                 ;#define send_save_frq  {crc_master=0xFFFF;mov_buf_master(0x01);mov_buf_master(0x04);mov_buf_master(0x00);mov_buf_master( ...
                 ;//#define send_test  {crc_master=0xFFFF;mov_buf_master(0x01);mov_buf_master(0x0C);mov_buf_master(0x01);mov_buf_master(0x ...
                 ;#define send_read_valskz  {crc_master=0xFFFF;mov_buf_master(0x01);mov_buf_master(0x04);mov_buf_master(0x00);mov_buf_mast ...
                 ;#define send_read_skz  {crc_master=0xFFFF;mov_buf_master(0x01);mov_buf_master(0x04);mov_buf_master(0x00);mov_buf_master( ...
                 ;#define send_read_object_state  {crc_master=0xFFFF;mov_buf_master(0x01);mov_buf_master(0x04);mov_buf_master(0x00);mov_bu ...
                 ;#define send_read_skzrel  {crc_master=0xFFFF;mov_buf_master(0x01);mov_buf_master(0x04);mov_buf_master(0x00);mov_buf_mast ...
                 ;#define send_save_skz1 {crc_master=0xFFFF;mov_buf_master(0x01);mov_buf_master(0x06);mov_buf_master(0x00);mov_buf_master( ...
                 ;#define send_save_skz2 {crc_master=0xFFFF;mov_buf_master(0x01);mov_buf_master(0x06);mov_buf_master(0x00);mov_buf_master( ...
                 ;#define send_read_skz1 {crc_master=0xFFFF;mov_buf_master(0x01);mov_buf_master(0x04);mov_buf_master(0x00);mov_buf_master( ...
                 ;#define send_read_skz2 {crc_master=0xFFFF;mov_buf_master(0x01);mov_buf_master(0x04);mov_buf_master(0x00);mov_buf_master( ...
                 ;//#define send_read_skz1  {crc_slave=0xFFFF;mov_buf_slave(0x01);mov_buf_slave(0x04);mov_buf_slave(0x00);mov_buf_slave(0x ...
                 ;#define whait_read {/*delay_ms(65);*/TCNT1=0x0000;TCCR1B=0x03;/*8000000/8==1us*65535=65ms*/while ((TIFR&0b00000100)==0); ...
                 ;#define BPS_link_failed {led_20_on;led_19_on;led_18_on;}
                 ;#define Object_disabled {led_20_on;led_19_on;led_18_on;}
                 ;#define BPS_link_ok{led_20_off;led_19_off;led_18_off;}
                 ;#define Object_enabled {led_20_off;led_19_off;led_18_off;}
                 ;#define Led_Intro1_on {led_10_on;led_09_on;led_08_on;led_07_on;led_06_on;led_05_on;led_04_on;led_03_on;led_02_on;led_01_ ...
                 ;#define Led_Intro2_on {led_warning_on;led_calibration_on;led_20_on;led_19_on;led_18_on;led_17_on;led_16_on;led_15_on;led ...
                 ;#define Led_Intro2_off {led_warning_off;led_calibration_off;led_20_off;led_19_off;led_18_off;led_17_off;led_16_off;led_1 ...
                 ;
                 ;//#define DeviceID1 0x9191
                 ;//#define DevID 0x9191
                 ;
                 ;// //--------------------------------------//
                 ;// USART1 Receiver interrupt service routine
                 ;//--------------------------------------//
                 ;#define RX_BUFFER_SIZE 128
                 ;#define TX_BUFFER_SIZE 128
                 ;//flash unsigned char APP_READY                                  @0xEFF0;
                 ;signed int LedQ=0,rms=0;
                 ;unsigned int SKZ_1,SKZ_2,SKZ1toSKZ2,SKZ_read,intro_cntr=0,intro_enabled=1,true_skz=0;
                 
                 	.DSEG
                 ;int terminal_mode=0,BPS_absent=0,PC_absent=0,w=0,rms_read=0,bps_absent_ctr=0;
                 ;void mov_buf_slave(char a);
                 ;void crc_end_slave();
                 ;void send_test();
                 ;void eeprom_reset();
                 ;void EEPROM_write(unsigned int eeAddress, unsigned char eeData);
                 ;char rx_buffer_master[RX_BUFFER_SIZE],rd_counts=0, CalibrFlag=0, r=0,object_state=1,SPI_tEnd=1;
                 ;unsigned int ModBusAddress=1,minimal_SKZ_val=30, minimal_object_enabled_level=40;
                 ;unsigned char rx_wr_index_master,rx_counter_master,mod_time_master,CRCHigh,CRCLow,reg91_answer;
                 ;int crc_master,crc_slave,rd_counter=0,AverTime_Value=30,AvTimer=0,start_calibration=0,finish_calibration=0,calibration_c ...
                 ;bit tx_en_master,rx_m_master,rx_c_master,new_message,BKI_state_sent=0,ProcessingEEPROM=0;
                 ;char str[15];
                 ;void GetCRC16(char len);
                 ;void CRC_update(unsigned char d);
                 ;unsigned char tx_buffer_counter_master,tx_buffer_counter_slave,adres,FreqOrder_read;
                 ;unsigned char i,drebezg;
                 ;float data[4];
                 ;signed char RecievedData[5],RecievedData5[6],AverSKZprcnt=0;
                 ;unsigned int /*ModBusAddress=1,*/BlinkCounter_Calibration=0,tok;
                 ;int warning_flag=0, FrequencyQ=3, ModbusMessage=0;
                 ;int blink_flag=0,red=0,calibration_correct=1;
                 ;int warning_flag_=0;
                 ;float ii;
                 ;unsigned long adc_buf;
                 ;bit press,first_press,second_press,AverTime_Flag=0, SendSKZsave_req=0;
                 ;unsigned int reg[40];
                 ;signed long SKZread_counter=0;
                 ; static int DeviceID=0x3491;// ID σρςπξιρςβΰ, ΰδπερ 0υ96, βξημξζνξ ςξλόκξ χςενθε, υπΰνθςρ βεπρθ, ςθο οπξψθβκθ, ςθο σρς ...
                 ;static int crctable[256]= {
                 ;	0x0000, 0xC1C0, 0x81C1, 0x4001, 0x01C3, 0xC003, 0x8002, 0x41C2, 0x01C6, 0xC006,
                 ;	0x8007, 0x41C7, 0x0005, 0xC1C5, 0x81C4, 0x4004, 0x01CC, 0xC00C, 0x800D, 0x41CD,
                 ;	0x000F, 0xC1CF, 0x81CE, 0x400E, 0x000A, 0xC1CA, 0x81CB, 0x400B, 0x01C9, 0xC009,
                 ;	0x8008, 0x41C8, 0x01D8, 0xC018, 0x8019, 0x41D9, 0x001B, 0xC1DB, 0x81DA, 0x401A,
                 ;	0x001E, 0xC1DE, 0x81DF, 0x401F, 0x01DD, 0xC01D, 0x801C, 0x41DC, 0x0014, 0xC1D4,
                 ;	0x81D5, 0x4015, 0x01D7, 0xC017, 0x8016, 0x41D6, 0x01D2, 0xC012, 0x8013, 0x41D3,
                 ;	0x0011, 0xC1D1, 0x81D0, 0x4010, 0x01F0, 0xC030, 0x8031, 0x41F1, 0x0033, 0xC1F3,
                 ;	0x81F2, 0x4032, 0x0036, 0xC1F6, 0x81F7, 0x4037, 0x01F5, 0xC035, 0x8034, 0x41F4,
                 ;	0x003C, 0xC1FC, 0x81FD, 0x403D, 0x01FF, 0xC03F, 0x803E, 0x41FE, 0x01FA, 0xC03A,
                 ;	0x803B, 0x41FB, 0x0039, 0xC1F9, 0x81F8, 0x4038, 0x0028, 0xC1E8, 0x81E9, 0x4029,
                 ;	0x01EB, 0xC02B, 0x802A, 0x41EA, 0x01EE, 0xC02E, 0x802F, 0x41EF, 0x002D, 0xC1ED,
                 ;	0x81EC, 0x402C, 0x01E4, 0xC024, 0x8025, 0x41E5, 0x0027, 0xC1E7, 0x81E6, 0x4026,
                 ;	0x0022, 0xC1E2, 0x81E3, 0x4023, 0x01E1, 0xC021, 0x8020, 0x41E0, 0x01A0, 0xC060,
                 ;	0x8061, 0x41A1, 0x0063, 0xC1A3, 0x81A2, 0x4062, 0x0066, 0xC1A6, 0x81A7, 0x4067,
                 ;	0x01A5, 0xC065, 0x8064, 0x41A4, 0x006C, 0xC1AC, 0x81AD, 0x406D, 0x01AF, 0xC06F,
                 ;	0x806E, 0x41AE, 0x01AA, 0xC06A, 0x806B, 0x41AB, 0x0069, 0xC1A9, 0x81A8, 0x4068,
                 ;	0x0078, 0xC1B8, 0x81B9, 0x4079, 0x01BB, 0xC07B, 0x807A, 0x41BA, 0x01BE, 0xC07E,
                 ;	0x807F, 0x41BF, 0x007D, 0xC1BD, 0x81BC, 0x407C, 0x01B4, 0xC074, 0x8075, 0x41B5,
                 ;	0x0077, 0xC1B7, 0x81B6, 0x4076, 0x0072, 0xC1B2, 0x81B3, 0x4073, 0x01B1, 0xC071,
                 ;	0x8070, 0x41B0, 0x0050, 0xC190, 0x8191, 0x4051, 0x0193, 0xC053, 0x8052, 0x4192,
                 ;	0x0196, 0xC056, 0x8057, 0x4197, 0x0055, 0xC195, 0x8194, 0x4054, 0x019C, 0xC05C,
                 ;	0x805D, 0x419D, 0x005F, 0xC19F, 0x819E, 0x405E, 0x005A, 0xC19A, 0x819B, 0x405B,
                 ;	0x0199, 0xC059, 0x8058, 0x4198, 0x0188, 0xC048, 0x8049, 0x4189, 0x004B, 0xC18B,
                 ;	0x818A, 0x404A, 0x004E, 0xC18E, 0x818F, 0x404F, 0x018D, 0xC04D, 0x804C, 0x418C,
                 ;	0x0044, 0xC184, 0x8185, 0x4045, 0x0187, 0xC047, 0x8046, 0x4186, 0x0182, 0xC042,
                 ;	0x8043, 0x4183, 0x0041, 0xC181, 0x8180, 0x4040
                 ;};
                 ;
                 ;
                 ;
                 ;interrupt [USART1_RXC] void usart1_rx_isr(void)
                 ; 0000 00B9 	{
                 
                 	.CSEG
                 _usart1_rx_isr:
                 ; .FSTART _usart1_rx_isr
000279 93aa      	ST   -Y,R26
00027a 93ea      	ST   -Y,R30
00027b 93fa      	ST   -Y,R31
00027c b7ef      	IN   R30,SREG
00027d 93ea      	ST   -Y,R30
                 ; 0000 00BA 	char st,d;
                 ; 0000 00BB 	st=UCSR1A;d=UDR1;
00027e 931a      	ST   -Y,R17
00027f 930a      	ST   -Y,R16
                 ;	st -> R17
                 ;	d -> R16
000280 9110 009b 	LDS  R17,155
000282 9100 009c 	LDS  R16,156
                 ; 0000 00BC 	if ((tx_en_master==0)&&(rx_c_master==0))
000284 fc20      	SBRC R2,0
000285 c002      	RJMP _0xF
000286 fe22      	SBRS R2,2
000287 c001      	RJMP _0x10
                 _0xF:
000288 c026      	RJMP _0xE
                 _0x10:
                 ; 0000 00BD 		{
                 ; 0000 00BE 		if (mod_time_master==0){rx_m_master=1;rx_wr_index_master=0;}
000289 91e0 0597 	LDS  R30,_mod_time_master
00028b 30e0      	CPI  R30,0
00028c f429      	BRNE _0x11
00028d 9468      	SET
00028e f821      	BLD  R2,1
00028f e0e0      	LDI  R30,LOW(0)
000290 93e0 0595 	STS  _rx_wr_index_master,R30
                 ; 0000 00BF 		mod_time_master=200;
                 _0x11:
000292 ece8      	LDI  R30,LOW(200)
000293 93e0 0597 	STS  _mod_time_master,R30
                 ; 0000 00C0 		rx_buffer_master[rx_wr_index_master]=d;
000295 91e0 0595 	LDS  R30,_rx_wr_index_master
000297 e0f0      	LDI  R31,0
000298 5fe6      	SUBI R30,LOW(-_rx_buffer_master)
000299 4ffa      	SBCI R31,HIGH(-_rx_buffer_master)
00029a 8300      	ST   Z,R16
                 ; 0000 00C1 		if (++rx_wr_index_master >=RX_BUFFER_SIZE) rx_wr_index_master=0;
00029b 91a0 0595 	LDS  R26,_rx_wr_index_master
00029d 5faf      	SUBI R26,-LOW(1)
00029e 93a0 0595 	STS  _rx_wr_index_master,R26
0002a0 38a0      	CPI  R26,LOW(0x80)
0002a1 f018      	BRLO _0x12
0002a2 e0e0      	LDI  R30,LOW(0)
0002a3 93e0 0595 	STS  _rx_wr_index_master,R30
                 ; 0000 00C2 		if (++rx_counter_master >= RX_BUFFER_SIZE) rx_counter_master=0;
                 _0x12:
0002a5 91a0 0596 	LDS  R26,_rx_counter_master
0002a7 5faf      	SUBI R26,-LOW(1)
0002a8 93a0 0596 	STS  _rx_counter_master,R26
0002aa 38a0      	CPI  R26,LOW(0x80)
0002ab f018      	BRLO _0x13
0002ac e0e0      	LDI  R30,LOW(0)
0002ad 93e0 0596 	STS  _rx_counter_master,R30
                 ; 0000 00C3 		}
                 _0x13:
                 ; 0000 00C4 
                 ; 0000 00C5 	}
                 _0xE:
0002af 9109      	LD   R16,Y+
0002b0 9119      	LD   R17,Y+
0002b1 91e9      	LD   R30,Y+
0002b2 bfef      	OUT  SREG,R30
0002b3 91f9      	LD   R31,Y+
0002b4 91e9      	LD   R30,Y+
0002b5 91a9      	LD   R26,Y+
0002b6 9518      	RETI
                 ; .FEND
                 ;//--------------------------------------//
                 ;// USART0 Receiver interrupt service routine
                 ;//--------------------------------------//
                 ;char rx_buffer_slave[RX_BUFFER_SIZE], RData;
                 ;unsigned char rx_wr_index_slave,rx_counter_slave,mod_time_slave;
                 ;bit tx_en_slave,rx_m_slave,rx_c_slave;
                 ;char tx_buffer_slave[TX_BUFFER_SIZE];
                 ;unsigned char tx_buffer_begin_slave,tx_buffer_end_slave;
                 ;interrupt [USART0_RXC] void usart0_rx_isr(void)
                 ; 0000 00CF 	{
                 _usart0_rx_isr:
                 ; .FSTART _usart0_rx_isr
0002b7 920a      	ST   -Y,R0
0002b8 921a      	ST   -Y,R1
0002b9 92fa      	ST   -Y,R15
0002ba 936a      	ST   -Y,R22
0002bb 937a      	ST   -Y,R23
0002bc 938a      	ST   -Y,R24
0002bd 939a      	ST   -Y,R25
0002be 93aa      	ST   -Y,R26
0002bf 93ba      	ST   -Y,R27
0002c0 93ea      	ST   -Y,R30
0002c1 93fa      	ST   -Y,R31
0002c2 b7ef      	IN   R30,SREG
0002c3 93ea      	ST   -Y,R30
                 ; 0000 00D0         char st,d;
                 ; 0000 00D1         int ii = 0;
                 ; 0000 00D2 
                 ; 0000 00D3         //int w=0;
                 ; 0000 00D4      #asm ("cli")
0002c4 940e 1a75 	CALL __SAVELOCR4
                 ;	st -> R17
                 ;	d -> R16
                 ;	ii -> R18,R19
                +
0002c6 e020     +LDI R18 , LOW ( 0 )
0002c7 e030     +LDI R19 , HIGH ( 0 )
                 	__GETWRN 18,19,0
0002c8 94f8      	cli
                 ; 0000 00D5 	st=UCSR0A;d=UDR0;//TX_slave_off;
0002c9 b11b      	IN   R17,11
0002ca b10c      	IN   R16,12
                 ; 0000 00D6      #asm ("sei")
0002cb 9478      	sei
                 ; 0000 00D7     if(rx_counter_slave==0)rd_counts=0;
0002cc 91e0 0845 	LDS  R30,_rx_counter_slave
0002ce 30e0      	CPI  R30,0
0002cf f419      	BRNE _0x14
0002d0 e0e0      	LDI  R30,LOW(0)
0002d1 93e0 058a 	STS  _rd_counts,R30
                 ; 0000 00D8 	 transmitter_off;
                 _0x14:
0002d3 e9e0      	LDI  R30,LOW(144)
0002d4 b9ea      	OUT  0xA,R30
                 ; 0000 00D9 
                 ; 0000 00DA 	if (tx_en_slave==0)//&&(rx_c_slave==0))   //rx_c_slave- κξνεφ μξδαΰρ ρξξαωενθ
0002d5 fc33      	SBRC R3,3
0002d6 c02d      	RJMP _0x15
                 ; 0000 00DB 		{
                 ; 0000 00DC 		if (mod_time_slave==0){rx_m_slave=1;rx_wr_index_slave=0;rd_counts=0;} //rx_m_slave = θδες οπξφερρ οπθεμΰ ρξξαωενθ μξδ ...
0002d7 91e0 0846 	LDS  R30,_mod_time_slave
0002d9 30e0      	CPI  R30,0
0002da f439      	BRNE _0x16
0002db 9468      	SET
0002dc f834      	BLD  R3,4
0002dd e0e0      	LDI  R30,LOW(0)
0002de 93e0 0844 	STS  _rx_wr_index_slave,R30
0002e0 93e0 058a 	STS  _rd_counts,R30
                 ; 0000 00DD 		mod_time_slave=14;
                 _0x16:
0002e2 e0ee      	LDI  R30,LOW(14)
0002e3 93e0 0846 	STS  _mod_time_slave,R30
                 ; 0000 00DE         rd_counts++;
0002e5 91e0 058a 	LDS  R30,_rd_counts
0002e7 5fef      	SUBI R30,-LOW(1)
0002e8 93e0 058a 	STS  _rd_counts,R30
                 ; 0000 00DF 		rx_buffer_slave[rx_wr_index_slave]=d;
0002ea 91e0 0844 	LDS  R30,_rx_wr_index_slave
0002ec e0f0      	LDI  R31,0
0002ed 53ed      	SUBI R30,LOW(-_rx_buffer_slave)
0002ee 4ff8      	SBCI R31,HIGH(-_rx_buffer_slave)
0002ef 8300      	ST   Z,R16
                 ; 0000 00E0 
                 ; 0000 00E1                 if (++rx_wr_index_slave >=RX_BUFFER_SIZE) rx_wr_index_slave=0;
0002f0 91a0 0844 	LDS  R26,_rx_wr_index_slave
0002f2 5faf      	SUBI R26,-LOW(1)
0002f3 93a0 0844 	STS  _rx_wr_index_slave,R26
0002f5 38a0      	CPI  R26,LOW(0x80)
0002f6 f018      	BRLO _0x17
0002f7 e0e0      	LDI  R30,LOW(0)
0002f8 93e0 0844 	STS  _rx_wr_index_slave,R30
                 ; 0000 00E2                 if (++rx_counter_slave >= RX_BUFFER_SIZE) rx_counter_slave=0;
                 _0x17:
0002fa 91a0 0845 	LDS  R26,_rx_counter_slave
0002fc 5faf      	SUBI R26,-LOW(1)
0002fd 93a0 0845 	STS  _rx_counter_slave,R26
0002ff 38a0      	CPI  R26,LOW(0x80)
000300 f018      	BRLO _0x18
000301 e0e0      	LDI  R30,LOW(0)
000302 93e0 0845 	STS  _rx_counter_slave,R30
                 ; 0000 00E3 		}
                 _0x18:
                 ; 0000 00E4 
                 ; 0000 00E5 BKI_state_sent=0; new_message=1;RData=d;
                 _0x15:
000304 94e8      	CLT
000305 f824      	BLD  R2,4
000306 9468      	SET
000307 f823      	BLD  R2,3
000308 9300 0843 	STS  _RData,R16
                 ; 0000 00E6 reg91_answer=(object_state|((!BPS_absent)<<5)|(red<<4)|((ProcessingEEPROM)<<3)|((red|ProcessingEEPROM)<<2)|((warning_fla ...
00030a 91e0 0506 	LDS  R30,_BPS_absent
00030c 91f0 0507 	LDS  R31,_BPS_absent+1
00030e 940e 1a2d 	CALL __LNEGW1
000310 95e2      	SWAP R30
000311 7fe0      	ANDI R30,0xF0
000312 0fee      	LSL  R30
000313 91a0 058d 	LDS  R26,_object_state
000315 2bea      	OR   R30,R26
000316 2fae      	MOV  R26,R30
000317 91e0 05bb 	LDS  R30,_red
000319 95e2      	SWAP R30
00031a 7fe0      	ANDI R30,0xF0
00031b 2bea      	OR   R30,R26
00031c 2e0e      	MOV  R0,R30
00031d e0a0      	LDI  R26,0
00031e fc25      	SBRC R2,5
00031f e0a1      	LDI  R26,1
000320 2fea      	MOV  R30,R26
000321 0fee      	LSL  R30
000322 0fee      	LSL  R30
000323 0fee      	LSL  R30
000324 2a0e      	OR   R0,R30
000325 e0e0      	LDI  R30,0
000326 fc25      	SBRC R2,5
000327 e0e1      	LDI  R30,1
000328 91a0 05bb 	LDS  R26,_red
00032a 2bea      	OR   R30,R26
00032b 0fee      	LSL  R30
00032c 0fee      	LSL  R30
00032d 2a0e      	OR   R0,R30
00032e 91e0 05b9 	LDS  R30,_blink_flag
000330 91f0 05ba 	LDS  R31,_blink_flag+1
000332 940e 1a2d 	CALL __LNEGW1
000334 0fee      	LSL  R30
000335 91a0 05b3 	LDS  R26,_warning_flag
000337 23ea      	AND  R30,R26
000338 2a0e      	OR   R0,R30
000339 91e0 05b9 	LDS  R30,_blink_flag
00033b 91f0 05ba 	LDS  R31,_blink_flag+1
00033d 940e 1a2d 	CALL __LNEGW1
00033f 23ea      	AND  R30,R26
000340 91a0 05b9 	LDS  R26,_blink_flag
000342 2bea      	OR   R30,R26
000343 29e0      	OR   R30,R0
000344 93e0 059a 	STS  _reg91_answer,R30
                 ; 0000 00E7 if(rd_counts==8){
000346 91a0 058a 	LDS  R26,_rd_counts
000348 30a8      	CPI  R26,LOW(0x8)
000349 f009      	BREQ PC+2
00034a c3d3      	RJMP _0x19
                 ; 0000 00E8 if(rx_buffer_slave[rx_wr_index_slave-8]==ModBusAddress&(rx_buffer_slave[rx_wr_index_slave-7]==0x06|rx_buffer_slave[rx_wr ...
00034b 91e0 0844 	LDS  R30,_rx_wr_index_slave
00034d e0f0      	LDI  R31,0
00034e 01bf      	MOVW R22,R30
00034f 9738      	SBIW R30,8
000350 53ed      	SUBI R30,LOW(-_rx_buffer_slave)
000351 4ff8      	SBCI R31,HIGH(-_rx_buffer_slave)
000352 81a0      	LD   R26,Z
000353 91e0 058f 	LDS  R30,_ModBusAddress
000355 91f0 0590 	LDS  R31,_ModBusAddress+1
000357 e0b0      	LDI  R27,0
000358 940e 1a09 	CALL __EQW12
00035a 2e1e      	MOV  R1,R30
00035b 01fb      	MOVW R30,R22
00035c 9737      	SBIW R30,7
00035d 53ed      	SUBI R30,LOW(-_rx_buffer_slave)
00035e 4ff8      	SBCI R31,HIGH(-_rx_buffer_slave)
00035f 81a0      	LD   R26,Z
000360 e0e6      	LDI  R30,LOW(6)
000361 940e 19ff 	CALL __EQB12
000363 2e0e      	MOV  R0,R30
000364 01fb      	MOVW R30,R22
000365 9737      	SBIW R30,7
000366 53ed      	SUBI R30,LOW(-_rx_buffer_slave)
000367 4ff8      	SBCI R31,HIGH(-_rx_buffer_slave)
000368 81a0      	LD   R26,Z
000369 e0e3      	LDI  R30,LOW(3)
00036a 940e 19ff 	CALL __EQB12
00036c 29e0      	OR   R30,R0
00036d 21e1      	AND  R30,R1
00036e f409      	BRNE PC+2
00036f c3ae      	RJMP _0x1A
000370 e0e0      	LDI  R30,LOW(0)
000371 93e0 0845 	STS  _rx_counter_slave,R30
                 ; 0000 00E9 if(rx_buffer_slave[rx_wr_index_slave-7]==0x06&rx_buffer_slave[rx_wr_index_slave-6]==0x00)
000373 91e0 0844 	LDS  R30,_rx_wr_index_slave
000375 e0f0      	LDI  R31,0
000376 01bf      	MOVW R22,R30
000377 9737      	SBIW R30,7
000378 53ed      	SUBI R30,LOW(-_rx_buffer_slave)
000379 4ff8      	SBCI R31,HIGH(-_rx_buffer_slave)
00037a 81a0      	LD   R26,Z
00037b e0e6      	LDI  R30,LOW(6)
00037c 940e 19ff 	CALL __EQB12
00037e 2e0e      	MOV  R0,R30
00037f 01fb      	MOVW R30,R22
000380 9736      	SBIW R30,6
000381 53ed      	SUBI R30,LOW(-_rx_buffer_slave)
000382 4ff8      	SBCI R31,HIGH(-_rx_buffer_slave)
000383 81a0      	LD   R26,Z
000384 e0e0      	LDI  R30,LOW(0)
000385 940e 19ff 	CALL __EQB12
000387 21e0      	AND  R30,R0
000388 f409      	BRNE PC+2
000389 c15a      	RJMP _0x1B
                 ; 0000 00EA {
                 ; 0000 00EB     if(rx_buffer_slave[rx_wr_index_slave-5]==0x91){start_calibration=(rx_buffer_slave[rx_wr_index_slave-3]&0x10)>>4;}
00038a 91e0 0844 	LDS  R30,_rx_wr_index_slave
00038c e0f0      	LDI  R31,0
00038d 9735      	SBIW R30,5
00038e 53ed      	SUBI R30,LOW(-_rx_buffer_slave)
00038f 4ff8      	SBCI R31,HIGH(-_rx_buffer_slave)
000390 81a0      	LD   R26,Z
000391 39a1      	CPI  R26,LOW(0x91)
000392 f481      	BRNE _0x1C
000393 91e0 0844 	LDS  R30,_rx_wr_index_slave
000395 e0f0      	LDI  R31,0
000396 9733      	SBIW R30,3
000397 53ed      	SUBI R30,LOW(-_rx_buffer_slave)
000398 4ff8      	SBCI R31,HIGH(-_rx_buffer_slave)
000399 81e0      	LD   R30,Z
00039a e0f0      	LDI  R31,0
00039b 71e0      	ANDI R30,LOW(0x10)
00039c 70f0      	ANDI R31,HIGH(0x10)
00039d 940e 19ec 	CALL __ASRW4
00039f 93e0 05a3 	STS  _start_calibration,R30
0003a1 93f0 05a4 	STS  _start_calibration+1,R31
                 ; 0000 00EC     if(rx_buffer_slave[rx_wr_index_slave-5]==0x92){AverTime_Value=rx_buffer_slave[rx_wr_index_slave-4]*30;if(AverTime_Va ...
                 _0x1C:
0003a3 91e0 0844 	LDS  R30,_rx_wr_index_slave
0003a5 e0f0      	LDI  R31,0
0003a6 9735      	SBIW R30,5
0003a7 53ed      	SUBI R30,LOW(-_rx_buffer_slave)
0003a8 4ff8      	SBCI R31,HIGH(-_rx_buffer_slave)
0003a9 81a0      	LD   R26,Z
0003aa 39a2      	CPI  R26,LOW(0x92)
0003ab f009      	BREQ PC+2
0003ac c046      	RJMP _0x1D
0003ad 91e0 0844 	LDS  R30,_rx_wr_index_slave
0003af e0f0      	LDI  R31,0
0003b0 9734      	SBIW R30,4
0003b1 53ed      	SUBI R30,LOW(-_rx_buffer_slave)
0003b2 4ff8      	SBCI R31,HIGH(-_rx_buffer_slave)
0003b3 81a0      	LD   R26,Z
0003b4 e1ee      	LDI  R30,LOW(30)
0003b5 9fea      	MUL  R30,R26
0003b6 01f0      	MOVW R30,R0
0003b7 93e0 059f 	STS  _AverTime_Value,R30
0003b9 93f0 05a0 	STS  _AverTime_Value+1,R31
0003bb 9730      	SBIW R30,0
0003bc f431      	BRNE _0x1E
0003bd e0e2      	LDI  R30,LOW(2)
0003be e0f0      	LDI  R31,HIGH(2)
0003bf 93e0 059f 	STS  _AverTime_Value,R30
0003c1 93f0 05a0 	STS  _AverTime_Value+1,R31
                 _0x1E:
0003c3 91e0 0844 	LDS  R30,_rx_wr_index_slave
0003c5 e0f0      	LDI  R31,0
0003c6 9733      	SBIW R30,3
0003c7 53ed      	SUBI R30,LOW(-_rx_buffer_slave)
0003c8 4ff8      	SBCI R31,HIGH(-_rx_buffer_slave)
0003c9 81e0      	LD   R30,Z
0003ca e0f0      	LDI  R31,0
0003cb 93e0 05b5 	STS  _FrequencyQ,R30
0003cd 93f0 05b6 	STS  _FrequencyQ+1,R31
0003cf 9468      	SET
0003d0 f831      	BLD  R3,1
0003d1 e0e0      	LDI  R30,LOW(0)
0003d2 93e0 05a1 	STS  _AvTimer,R30
0003d4 93e0 05a2 	STS  _AvTimer+1,R30
0003d6 93e0 008b 	STS  139,R30
0003d8 e0e4      	LDI  R30,LOW(4)
0003d9 93e0 008a 	STS  138,R30
0003db e8e1      	LDI  R30,LOW(129)
0003dc 93e0 0089 	STS  137,R30
0003de e0eb      	LDI  R30,LOW(11)
0003df 93e0 0088 	STS  136,R30
0003e1 e0e4      	LDI  R30,LOW(4)
0003e2 93e0 007d 	STS  125,R30
0003e4 e0e0      	LDI  R30,LOW(0)
0003e5 93e0 05bd 	STS  _SKZread_counter,R30
0003e7 93e0 05be 	STS  _SKZread_counter+1,R30
0003e9 93e0 05bf 	STS  _SKZread_counter+2,R30
0003eb 93e0 05c0 	STS  _SKZread_counter+3,R30
0003ed e3ee      	LDI  R30,LOW(62)
0003ee e0f0      	LDI  R31,HIGH(62)
0003ef 93e0 05b7 	STS  _ModbusMessage,R30
0003f1 93f0 05b8 	STS  _ModbusMessage+1,R31
                 ; 0000 00ED     if(rx_buffer_slave[rx_wr_index_slave-5]==0x93){ModBusAddress=rx_buffer_slave[rx_wr_index_slave-3];ModbusMessage=63;}
                 _0x1D:
0003f3 91e0 0844 	LDS  R30,_rx_wr_index_slave
0003f5 e0f0      	LDI  R31,0
0003f6 9735      	SBIW R30,5
0003f7 53ed      	SUBI R30,LOW(-_rx_buffer_slave)
0003f8 4ff8      	SBCI R31,HIGH(-_rx_buffer_slave)
0003f9 81a0      	LD   R26,Z
0003fa 39a3      	CPI  R26,LOW(0x93)
0003fb f491      	BRNE _0x1F
0003fc 91e0 0844 	LDS  R30,_rx_wr_index_slave
0003fe e0f0      	LDI  R31,0
0003ff 9733      	SBIW R30,3
000400 53ed      	SUBI R30,LOW(-_rx_buffer_slave)
000401 4ff8      	SBCI R31,HIGH(-_rx_buffer_slave)
000402 81e0      	LD   R30,Z
000403 e0f0      	LDI  R31,0
000404 93e0 058f 	STS  _ModBusAddress,R30
000406 93f0 0590 	STS  _ModBusAddress+1,R31
000408 e3ef      	LDI  R30,LOW(63)
000409 e0f0      	LDI  R31,HIGH(63)
00040a 93e0 05b7 	STS  _ModbusMessage,R30
00040c 93f0 05b8 	STS  _ModbusMessage+1,R31
                 ; 0000 00EE     if(rx_buffer_slave[rx_wr_index_slave-5]==0x94){minimal_SKZ_val=(((unsigned int)rx_buffer_slave[rx_wr_index_slave-4]) ...
                 _0x1F:
00040e 91e0 0844 	LDS  R30,_rx_wr_index_slave
000410 e0f0      	LDI  R31,0
000411 9735      	SBIW R30,5
000412 53ed      	SUBI R30,LOW(-_rx_buffer_slave)
000413 4ff8      	SBCI R31,HIGH(-_rx_buffer_slave)
000414 81a0      	LD   R26,Z
000415 39a4      	CPI  R26,LOW(0x94)
000416 f4e1      	BRNE _0x20
000417 91e0 0844 	LDS  R30,_rx_wr_index_slave
000419 e0f0      	LDI  R31,0
00041a 010f      	MOVW R0,R30
00041b 9734      	SBIW R30,4
00041c 53ed      	SUBI R30,LOW(-_rx_buffer_slave)
00041d 4ff8      	SBCI R31,HIGH(-_rx_buffer_slave)
00041e 81f0      	LD   R31,Z
00041f e0e0      	LDI  R30,LOW(0)
000420 01df      	MOVW R26,R30
000421 01f0      	MOVW R30,R0
000422 9733      	SBIW R30,3
000423 53ed      	SUBI R30,LOW(-_rx_buffer_slave)
000424 4ff8      	SBCI R31,HIGH(-_rx_buffer_slave)
000425 81e0      	LD   R30,Z
000426 e0f0      	LDI  R31,0
000427 2bea      	OR   R30,R26
000428 2bfb      	OR   R31,R27
000429 93e0 0591 	STS  _minimal_SKZ_val,R30
00042b 93f0 0592 	STS  _minimal_SKZ_val+1,R31
00042d e4e0      	LDI  R30,LOW(64)
00042e e0f0      	LDI  R31,HIGH(64)
00042f 93e0 05b7 	STS  _ModbusMessage,R30
000431 93f0 05b8 	STS  _ModbusMessage+1,R31
                 ; 0000 00EF     if(rx_buffer_slave[rx_wr_index_slave-5]==0x95){minimal_object_enabled_level=0;minimal_object_enabled_level=(int)(((( ...
                 _0x20:
000433 91e0 0844 	LDS  R30,_rx_wr_index_slave
000435 e0f0      	LDI  R31,0
000436 9735      	SBIW R30,5
000437 53ed      	SUBI R30,LOW(-_rx_buffer_slave)
000438 4ff8      	SBCI R31,HIGH(-_rx_buffer_slave)
000439 81a0      	LD   R26,Z
00043a 39a5      	CPI  R26,LOW(0x95)
00043b f509      	BRNE _0x21
00043c e0e0      	LDI  R30,LOW(0)
00043d 93e0 0593 	STS  _minimal_object_enabled_level,R30
00043f 93e0 0594 	STS  _minimal_object_enabled_level+1,R30
000441 91e0 0844 	LDS  R30,_rx_wr_index_slave
000443 e0f0      	LDI  R31,0
000444 010f      	MOVW R0,R30
000445 9734      	SBIW R30,4
000446 53ed      	SUBI R30,LOW(-_rx_buffer_slave)
000447 4ff8      	SBCI R31,HIGH(-_rx_buffer_slave)
000448 81f0      	LD   R31,Z
000449 e0e0      	LDI  R30,LOW(0)
00044a 01df      	MOVW R26,R30
00044b 01f0      	MOVW R30,R0
00044c 9733      	SBIW R30,3
00044d 53ed      	SUBI R30,LOW(-_rx_buffer_slave)
00044e 4ff8      	SBCI R31,HIGH(-_rx_buffer_slave)
00044f 81e0      	LD   R30,Z
000450 e0f0      	LDI  R31,0
000451 2bea      	OR   R30,R26
000452 2bfb      	OR   R31,R27
000453 93e0 0593 	STS  _minimal_object_enabled_level,R30
000455 93f0 0594 	STS  _minimal_object_enabled_level+1,R31
000457 e4e1      	LDI  R30,LOW(65)
000458 e0f0      	LDI  R31,HIGH(65)
000459 93e0 05b7 	STS  _ModbusMessage,R30
00045b 93f0 05b8 	STS  _ModbusMessage+1,R31
                 ; 0000 00F0     if(rx_buffer_slave[rx_wr_index_slave-5]==0xAC)
                 _0x21:
00045d 91e0 0844 	LDS  R30,_rx_wr_index_slave
00045f e0f0      	LDI  R31,0
000460 9735      	SBIW R30,5
000461 53ed      	SUBI R30,LOW(-_rx_buffer_slave)
000462 4ff8      	SBCI R31,HIGH(-_rx_buffer_slave)
000463 81a0      	LD   R26,Z
000464 3aac      	CPI  R26,LOW(0xAC)
000465 f431      	BRNE _0x22
                 ; 0000 00F1     {
                 ; 0000 00F2     flash_erase_flag = 1;
000466 e0e1      	LDI  R30,LOW(1)
000467 e0f0      	LDI  R31,HIGH(1)
000468 93e0 05a5 	STS  _flash_erase_flag,R30
00046a 93f0 05a6 	STS  _flash_erase_flag+1,R31
                 ; 0000 00F3     //for(ii=0x0400;ii<0x0600;ii++)EEPROM_write(ii,0xff);
                 ; 0000 00F4     }
                 ; 0000 00F5     CRCHigh=0xff;
                 _0x22:
00046c efef      	LDI  R30,LOW(255)
00046d 93e0 0598 	STS  _CRCHigh,R30
                 ; 0000 00F6     CRCLow=0xff;
00046f 93e0 0599 	STS  _CRCLow,R30
                 ; 0000 00F7     for (r=0;r<6;r++)
000471 e0e0      	LDI  R30,LOW(0)
000472 93e0 058c 	STS  _r,R30
                 _0x24:
000474 91a0 058c 	LDS  R26,_r
000476 30a6      	CPI  R26,LOW(0x6)
000477 f520      	BRSH _0x25
                 ; 0000 00F8         {
                 ; 0000 00F9         //#asm("cli");
                 ; 0000 00FA         CRC_update(rx_buffer_slave[r]);
000478 91e0 058c 	LDS  R30,_r
00047a e0f0      	LDI  R31,0
00047b 53ed      	SUBI R30,LOW(-_rx_buffer_slave)
00047c 4ff8      	SBCI R31,HIGH(-_rx_buffer_slave)
00047d 81a0      	LD   R26,Z
00047e 940e 17e1 	CALL _CRC_update
                 ; 0000 00FB         //tx_buffer_counter_slave++;	        //
                 ; 0000 00FC         tx_buffer_slave[tx_buffer_end_slave]=rx_buffer_slave[r]; //
000480 91a0 08c8 	LDS  R26,_tx_buffer_end_slave
000482 e0b0      	LDI  R27,0
000483 5ba9      	SUBI R26,LOW(-_tx_buffer_slave)
000484 4fb7      	SBCI R27,HIGH(-_tx_buffer_slave)
000485 91e0 058c 	LDS  R30,_r
000487 e0f0      	LDI  R31,0
000488 53ed      	SUBI R30,LOW(-_rx_buffer_slave)
000489 4ff8      	SBCI R31,HIGH(-_rx_buffer_slave)
00048a 81e0      	LD   R30,Z
00048b 93ec      	ST   X,R30
                 ; 0000 00FD         if (++tx_buffer_end_slave==TX_BUFFER_SIZE) tx_buffer_end_slave=0;//
00048c 91a0 08c8 	LDS  R26,_tx_buffer_end_slave
00048e 5faf      	SUBI R26,-LOW(1)
00048f 93a0 08c8 	STS  _tx_buffer_end_slave,R26
000491 38a0      	CPI  R26,LOW(0x80)
000492 f419      	BRNE _0x26
000493 e0e0      	LDI  R30,LOW(0)
000494 93e0 08c8 	STS  _tx_buffer_end_slave,R30
                 ; 0000 00FE         //#asm("sei");
                 ; 0000 00FF         }
                 _0x26:
000496 91e0 058c 	LDS  R30,_r
000498 5fef      	SUBI R30,-LOW(1)
000499 93e0 058c 	STS  _r,R30
00049b cfd8      	RJMP _0x24
                 _0x25:
                 ; 0000 0100     crc_slave=((unsigned int)CRCLow<<8)|CRCHigh;
00049c 91b0 0599 	LDS  R27,_CRCLow
00049e e0a0      	LDI  R26,LOW(0)
00049f 91e0 0598 	LDS  R30,_CRCHigh
0004a1 e0f0      	LDI  R31,0
0004a2 2bea      	OR   R30,R26
0004a3 2bfb      	OR   R31,R27
0004a4 93e0 059d 	STS  _crc_slave,R30
0004a6 93f0 059e 	STS  _crc_slave+1,R31
                 ; 0000 0101          //   tx_buffer_counter_slave++;
                 ; 0000 0102         // #asm("cli");           //
                 ; 0000 0103         tx_buffer_slave[tx_buffer_end_slave]=crc_slave; //
0004a8 91e0 08c8 	LDS  R30,_tx_buffer_end_slave
0004aa e0f0      	LDI  R31,0
0004ab 5be9      	SUBI R30,LOW(-_tx_buffer_slave)
0004ac 4ff7      	SBCI R31,HIGH(-_tx_buffer_slave)
0004ad 91a0 059d 	LDS  R26,_crc_slave
0004af 83a0      	STD  Z+0,R26
                 ; 0000 0104         if (++tx_buffer_end_slave==TX_BUFFER_SIZE) tx_buffer_end_slave=0;
0004b0 91a0 08c8 	LDS  R26,_tx_buffer_end_slave
0004b2 5faf      	SUBI R26,-LOW(1)
0004b3 93a0 08c8 	STS  _tx_buffer_end_slave,R26
0004b5 38a0      	CPI  R26,LOW(0x80)
0004b6 f419      	BRNE _0x27
0004b7 e0e0      	LDI  R30,LOW(0)
0004b8 93e0 08c8 	STS  _tx_buffer_end_slave,R30
                 ; 0000 0105         //    tx_buffer_counter_slave++;	        //
                 ; 0000 0106         tx_buffer_slave[tx_buffer_end_slave]=(crc_slave>>8); //
                 _0x27:
0004ba 91a0 08c8 	LDS  R26,_tx_buffer_end_slave
0004bc e0b0      	LDI  R27,0
0004bd 5ba9      	SUBI R26,LOW(-_tx_buffer_slave)
0004be 4fb7      	SBCI R27,HIGH(-_tx_buffer_slave)
0004bf 91e0 059d 	LDS  R30,_crc_slave
0004c1 91f0 059e 	LDS  R31,_crc_slave+1
0004c3 940e 19f5 	CALL __ASRW8
0004c5 93ec      	ST   X,R30
                 ; 0000 0107         if (++tx_buffer_end_slave==TX_BUFFER_SIZE) tx_buffer_end_slave=0;
0004c6 91a0 08c8 	LDS  R26,_tx_buffer_end_slave
0004c8 5faf      	SUBI R26,-LOW(1)
0004c9 93a0 08c8 	STS  _tx_buffer_end_slave,R26
0004cb 38a0      	CPI  R26,LOW(0x80)
0004cc f419      	BRNE _0x28
0004cd e0e0      	LDI  R30,LOW(0)
0004ce 93e0 08c8 	STS  _tx_buffer_end_slave,R30
                 ; 0000 0108         TX_slave_on;                            //
                 _0x28:
0004d0 9a1a      	SBI  0x3,2
                 ; 0000 0109         tx_en_slave=1;crc_slave=0xffff;transmitter_on;
0004d1 9468      	SET
0004d2 f833      	BLD  R3,3
0004d3 efef      	LDI  R30,LOW(65535)
0004d4 efff      	LDI  R31,HIGH(65535)
0004d5 93e0 059d 	STS  _crc_slave,R30
0004d7 93f0 059e 	STS  _crc_slave+1,R31
0004d9 ede8      	LDI  R30,LOW(216)
0004da b9ea      	OUT  0xA,R30
                 ; 0000 010A         #asm("cli");
0004db 94f8      	cli
                 ; 0000 010B             UDR0=tx_buffer_slave[tx_buffer_begin_slave];
0004dc 91e0 08c7 	LDS  R30,_tx_buffer_begin_slave
0004de e0f0      	LDI  R31,0
0004df 5be9      	SUBI R30,LOW(-_tx_buffer_slave)
0004e0 4ff7      	SBCI R31,HIGH(-_tx_buffer_slave)
0004e1 81e0      	LD   R30,Z
0004e2 b9ec      	OUT  0xC,R30
                 ; 0000 010C         #asm("sei");
0004e3 9478      	sei
                 ; 0000 010D     //rx_c_slave=0;rx_m_slave=0;rx_wr_index_slave=0;rx_counter_slave=0;
                 ; 0000 010E }
                 ; 0000 010F if(rx_buffer_slave[rx_wr_index_slave-7]==0x03&rx_buffer_slave[rx_wr_index_slave-6]==0x00&rx_buffer_slave[rx_wr_index_sla ...
                 _0x1B:
0004e4 91e0 0844 	LDS  R30,_rx_wr_index_slave
0004e6 e0f0      	LDI  R31,0
0004e7 01bf      	MOVW R22,R30
0004e8 9737      	SBIW R30,7
0004e9 53ed      	SUBI R30,LOW(-_rx_buffer_slave)
0004ea 4ff8      	SBCI R31,HIGH(-_rx_buffer_slave)
0004eb 81a0      	LD   R26,Z
0004ec e0e3      	LDI  R30,LOW(3)
0004ed 940e 19ff 	CALL __EQB12
0004ef 2e0e      	MOV  R0,R30
0004f0 01fb      	MOVW R30,R22
0004f1 9736      	SBIW R30,6
0004f2 53ed      	SUBI R30,LOW(-_rx_buffer_slave)
0004f3 4ff8      	SBCI R31,HIGH(-_rx_buffer_slave)
0004f4 81a0      	LD   R26,Z
0004f5 e0e0      	LDI  R30,LOW(0)
0004f6 940e 19ff 	CALL __EQB12
0004f8 220e      	AND  R0,R30
0004f9 01fb      	MOVW R30,R22
0004fa 9734      	SBIW R30,4
0004fb 53ed      	SUBI R30,LOW(-_rx_buffer_slave)
0004fc 4ff8      	SBCI R31,HIGH(-_rx_buffer_slave)
0004fd 81a0      	LD   R26,Z
0004fe e0e0      	LDI  R30,LOW(0)
0004ff 940e 19ff 	CALL __EQB12
000501 220e      	AND  R0,R30
000502 01fb      	MOVW R30,R22
000503 9733      	SBIW R30,3
000504 53ed      	SUBI R30,LOW(-_rx_buffer_slave)
000505 4ff8      	SBCI R31,HIGH(-_rx_buffer_slave)
000506 81a0      	LD   R26,Z
000507 e0e1      	LDI  R30,LOW(1)
000508 940e 19ff 	CALL __EQB12
00050a 21e0      	AND  R30,R0
00050b f409      	BRNE PC+2
00050c c211      	RJMP _0x29
                 ; 0000 0110 if(rx_buffer_slave[rx_wr_index_slave-5]==0x90){rx_buffer_slave[rx_wr_index_slave-6]=0x02;rx_buffer_slave[rx_wr_index_sla ...
00050d 91e0 0844 	LDS  R30,_rx_wr_index_slave
00050f e0f0      	LDI  R31,0
000510 9735      	SBIW R30,5
000511 53ed      	SUBI R30,LOW(-_rx_buffer_slave)
000512 4ff8      	SBCI R31,HIGH(-_rx_buffer_slave)
000513 81a0      	LD   R26,Z
000514 39a0      	CPI  R26,LOW(0x90)
000515 f4c1      	BRNE _0x2A
000516 91e0 0844 	LDS  R30,_rx_wr_index_slave
000518 e0f0      	LDI  R31,0
000519 9736      	SBIW R30,6
00051a 53ed      	SUBI R30,LOW(-_rx_buffer_slave)
00051b 4ff8      	SBCI R31,HIGH(-_rx_buffer_slave)
00051c e0a2      	LDI  R26,LOW(2)
00051d 83a0      	STD  Z+0,R26
00051e 91e0 0844 	LDS  R30,_rx_wr_index_slave
000520 e0f0      	LDI  R31,0
000521 9735      	SBIW R30,5
000522 53ed      	SUBI R30,LOW(-_rx_buffer_slave)
000523 4ff8      	SBCI R31,HIGH(-_rx_buffer_slave)
000524 91a0 05ae 	LDS  R26,_AverSKZprcnt
000526 83a0      	STD  Z+0,R26
000527 91e0 0844 	LDS  R30,_rx_wr_index_slave
000529 e0f0      	LDI  R31,0
00052a 9734      	SBIW R30,4
00052b 53ed      	SUBI R30,LOW(-_rx_buffer_slave)
00052c 4ff8      	SBCI R31,HIGH(-_rx_buffer_slave)
00052d 8240      	ST   Z,R4
                 ; 0000 0111 if(rx_buffer_slave[rx_wr_index_slave-5]==0x91){rx_buffer_slave[rx_wr_index_slave-6]=0x02;rx_buffer_slave[rx_wr_index_sla ...
                 _0x2A:
00052e 91e0 0844 	LDS  R30,_rx_wr_index_slave
000530 e0f0      	LDI  R31,0
000531 9735      	SBIW R30,5
000532 53ed      	SUBI R30,LOW(-_rx_buffer_slave)
000533 4ff8      	SBCI R31,HIGH(-_rx_buffer_slave)
000534 81a0      	LD   R26,Z
000535 39a1      	CPI  R26,LOW(0x91)
000536 f571      	BRNE _0x2B
000537 91e0 0844 	LDS  R30,_rx_wr_index_slave
000539 e0f0      	LDI  R31,0
00053a 9736      	SBIW R30,6
00053b 53ed      	SUBI R30,LOW(-_rx_buffer_slave)
00053c 4ff8      	SBCI R31,HIGH(-_rx_buffer_slave)
00053d e0a2      	LDI  R26,LOW(2)
00053e 83a0      	STD  Z+0,R26
00053f 91e0 0844 	LDS  R30,_rx_wr_index_slave
000541 e0f0      	LDI  R31,0
000542 9735      	SBIW R30,5
000543 53ed      	SUBI R30,LOW(-_rx_buffer_slave)
000544 4ff8      	SBCI R31,HIGH(-_rx_buffer_slave)
000545 010f      	MOVW R0,R30
000546 91e0 05b3 	LDS  R30,_warning_flag
000548 91f0 05b4 	LDS  R31,_warning_flag+1
00054a 940e 1a2d 	CALL __LNEGW1
00054c 0fee      	LSL  R30
00054d 91a0 05b9 	LDS  R26,_blink_flag
00054f 2bea      	OR   R30,R26
000550 2fae      	MOV  R26,R30
000551 91e0 05b3 	LDS  R30,_warning_flag
000553 91f0 05b4 	LDS  R31,_warning_flag+1
000555 940e 1a2d 	CALL __LNEGW1
000557 2bea      	OR   R30,R26
000558 01d0      	MOVW R26,R0
000559 93ec      	ST   X,R30
00055a 91e0 0844 	LDS  R30,_rx_wr_index_slave
00055c e0f0      	LDI  R31,0
00055d 9734      	SBIW R30,4
00055e 53ed      	SUBI R30,LOW(-_rx_buffer_slave)
00055f 4ff8      	SBCI R31,HIGH(-_rx_buffer_slave)
000560 91a0 059a 	LDS  R26,_reg91_answer
000562 83a0      	STD  Z+0,R26
000563 9468      	SET
000564 f824      	BLD  R2,4
                 ; 0000 0112 if(rx_buffer_slave[rx_wr_index_slave-5]==0x92){rx_buffer_slave[rx_wr_index_slave-6]=0x02;rx_buffer_slave[rx_wr_index_sla ...
                 _0x2B:
000565 91e0 0844 	LDS  R30,_rx_wr_index_slave
000567 e0f0      	LDI  R31,0
000568 9735      	SBIW R30,5
000569 53ed      	SUBI R30,LOW(-_rx_buffer_slave)
00056a 4ff8      	SBCI R31,HIGH(-_rx_buffer_slave)
00056b 81a0      	LD   R26,Z
00056c 39a2      	CPI  R26,LOW(0x92)
00056d f511      	BRNE _0x2C
00056e 91e0 0844 	LDS  R30,_rx_wr_index_slave
000570 e0f0      	LDI  R31,0
000571 9736      	SBIW R30,6
000572 53ed      	SUBI R30,LOW(-_rx_buffer_slave)
000573 4ff8      	SBCI R31,HIGH(-_rx_buffer_slave)
000574 e0a2      	LDI  R26,LOW(2)
000575 83a0      	STD  Z+0,R26
000576 91e0 0844 	LDS  R30,_rx_wr_index_slave
000578 e0f0      	LDI  R31,0
000579 9735      	SBIW R30,5
00057a 53ed      	SUBI R30,LOW(-_rx_buffer_slave)
00057b 4ff8      	SBCI R31,HIGH(-_rx_buffer_slave)
00057c 01bf      	MOVW R22,R30
00057d 91a0 059f 	LDS  R26,_AverTime_Value
00057f 91b0 05a0 	LDS  R27,_AverTime_Value+1
000581 e1ee      	LDI  R30,LOW(30)
000582 e0f0      	LDI  R31,HIGH(30)
000583 940e 1a45 	CALL __DIVW21
000585 01db      	MOVW R26,R22
000586 93ec      	ST   X,R30
000587 91e0 0844 	LDS  R30,_rx_wr_index_slave
000589 e0f0      	LDI  R31,0
00058a 9734      	SBIW R30,4
00058b 53ed      	SUBI R30,LOW(-_rx_buffer_slave)
00058c 4ff8      	SBCI R31,HIGH(-_rx_buffer_slave)
00058d 91a0 05b5 	LDS  R26,_FrequencyQ
00058f 83a0      	STD  Z+0,R26
                 ; 0000 0113 if(rx_buffer_slave[rx_wr_index_slave-5]==0x93){rx_buffer_slave[rx_wr_index_slave-6]=0x02;rx_buffer_slave[rx_wr_index_sla ...
                 _0x2C:
000590 91e0 0844 	LDS  R30,_rx_wr_index_slave
000592 e0f0      	LDI  R31,0
000593 9735      	SBIW R30,5
000594 53ed      	SUBI R30,LOW(-_rx_buffer_slave)
000595 4ff8      	SBCI R31,HIGH(-_rx_buffer_slave)
000596 81a0      	LD   R26,Z
000597 39a3      	CPI  R26,LOW(0x93)
000598 f4c9      	BRNE _0x2D
000599 91e0 0844 	LDS  R30,_rx_wr_index_slave
00059b e0f0      	LDI  R31,0
00059c 9736      	SBIW R30,6
00059d 53ed      	SUBI R30,LOW(-_rx_buffer_slave)
00059e 4ff8      	SBCI R31,HIGH(-_rx_buffer_slave)
00059f e0a2      	LDI  R26,LOW(2)
0005a0 83a0      	STD  Z+0,R26
0005a1 91e0 0844 	LDS  R30,_rx_wr_index_slave
0005a3 e0f0      	LDI  R31,0
0005a4 9735      	SBIW R30,5
0005a5 53ed      	SUBI R30,LOW(-_rx_buffer_slave)
0005a6 4ff8      	SBCI R31,HIGH(-_rx_buffer_slave)
0005a7 e0a0      	LDI  R26,LOW(0)
0005a8 83a0      	STD  Z+0,R26
0005a9 91e0 0844 	LDS  R30,_rx_wr_index_slave
0005ab e0f0      	LDI  R31,0
0005ac 9734      	SBIW R30,4
0005ad 53ed      	SUBI R30,LOW(-_rx_buffer_slave)
0005ae 4ff8      	SBCI R31,HIGH(-_rx_buffer_slave)
0005af 91a0 058f 	LDS  R26,_ModBusAddress
0005b1 83a0      	STD  Z+0,R26
                 ; 0000 0114 if(rx_buffer_slave[rx_wr_index_slave-5]==0x94){rx_buffer_slave[rx_wr_index_slave-6]=0x02;rx_buffer_slave[rx_wr_index_sla ...
                 _0x2D:
0005b2 91e0 0844 	LDS  R30,_rx_wr_index_slave
0005b4 e0f0      	LDI  R31,0
0005b5 9735      	SBIW R30,5
0005b6 53ed      	SUBI R30,LOW(-_rx_buffer_slave)
0005b7 4ff8      	SBCI R31,HIGH(-_rx_buffer_slave)
0005b8 81a0      	LD   R26,Z
0005b9 39a4      	CPI  R26,LOW(0x94)
0005ba f4d9      	BRNE _0x2E
0005bb 91e0 0844 	LDS  R30,_rx_wr_index_slave
0005bd e0f0      	LDI  R31,0
0005be 9736      	SBIW R30,6
0005bf 53ed      	SUBI R30,LOW(-_rx_buffer_slave)
0005c0 4ff8      	SBCI R31,HIGH(-_rx_buffer_slave)
0005c1 e0a2      	LDI  R26,LOW(2)
0005c2 83a0      	STD  Z+0,R26
0005c3 91e0 0844 	LDS  R30,_rx_wr_index_slave
0005c5 e0f0      	LDI  R31,0
0005c6 9735      	SBIW R30,5
0005c7 53ed      	SUBI R30,LOW(-_rx_buffer_slave)
0005c8 4ff8      	SBCI R31,HIGH(-_rx_buffer_slave)
0005c9 01df      	MOVW R26,R30
0005ca 91e0 0592 	LDS  R30,_minimal_SKZ_val+1
0005cc 93ec      	ST   X,R30
0005cd 91e0 0844 	LDS  R30,_rx_wr_index_slave
0005cf e0f0      	LDI  R31,0
0005d0 9734      	SBIW R30,4
0005d1 53ed      	SUBI R30,LOW(-_rx_buffer_slave)
0005d2 4ff8      	SBCI R31,HIGH(-_rx_buffer_slave)
0005d3 91a0 0591 	LDS  R26,_minimal_SKZ_val
0005d5 83a0      	STD  Z+0,R26
                 ; 0000 0115 if(rx_buffer_slave[rx_wr_index_slave-5]==0x95){rx_buffer_slave[rx_wr_index_slave-6]=0x02;rx_buffer_slave[rx_wr_index_sla ...
                 _0x2E:
0005d6 91e0 0844 	LDS  R30,_rx_wr_index_slave
0005d8 e0f0      	LDI  R31,0
0005d9 9735      	SBIW R30,5
0005da 53ed      	SUBI R30,LOW(-_rx_buffer_slave)
0005db 4ff8      	SBCI R31,HIGH(-_rx_buffer_slave)
0005dc 81a0      	LD   R26,Z
0005dd 39a5      	CPI  R26,LOW(0x95)
0005de f4d9      	BRNE _0x2F
0005df 91e0 0844 	LDS  R30,_rx_wr_index_slave
0005e1 e0f0      	LDI  R31,0
0005e2 9736      	SBIW R30,6
0005e3 53ed      	SUBI R30,LOW(-_rx_buffer_slave)
0005e4 4ff8      	SBCI R31,HIGH(-_rx_buffer_slave)
0005e5 e0a2      	LDI  R26,LOW(2)
0005e6 83a0      	STD  Z+0,R26
0005e7 91e0 0844 	LDS  R30,_rx_wr_index_slave
0005e9 e0f0      	LDI  R31,0
0005ea 9735      	SBIW R30,5
0005eb 53ed      	SUBI R30,LOW(-_rx_buffer_slave)
0005ec 4ff8      	SBCI R31,HIGH(-_rx_buffer_slave)
0005ed 01df      	MOVW R26,R30
0005ee 91e0 0594 	LDS  R30,_minimal_object_enabled_level+1
0005f0 93ec      	ST   X,R30
0005f1 91e0 0844 	LDS  R30,_rx_wr_index_slave
0005f3 e0f0      	LDI  R31,0
0005f4 9734      	SBIW R30,4
0005f5 53ed      	SUBI R30,LOW(-_rx_buffer_slave)
0005f6 4ff8      	SBCI R31,HIGH(-_rx_buffer_slave)
0005f7 91a0 0593 	LDS  R26,_minimal_object_enabled_level
0005f9 83a0      	STD  Z+0,R26
                 ; 0000 0116 if(rx_buffer_slave[rx_wr_index_slave-5]==0x96){rx_buffer_slave[rx_wr_index_slave-6]=0x02;rx_buffer_slave[rx_wr_index_sla ...
                 _0x2F:
0005fa 91e0 0844 	LDS  R30,_rx_wr_index_slave
0005fc e0f0      	LDI  R31,0
0005fd 9735      	SBIW R30,5
0005fe 53ed      	SUBI R30,LOW(-_rx_buffer_slave)
0005ff 4ff8      	SBCI R31,HIGH(-_rx_buffer_slave)
000600 81a0      	LD   R26,Z
000601 39a6      	CPI  R26,LOW(0x96)
000602 f4c9      	BRNE _0x30
000603 91e0 0844 	LDS  R30,_rx_wr_index_slave
000605 e0f0      	LDI  R31,0
000606 9736      	SBIW R30,6
000607 53ed      	SUBI R30,LOW(-_rx_buffer_slave)
000608 4ff8      	SBCI R31,HIGH(-_rx_buffer_slave)
000609 e0a2      	LDI  R26,LOW(2)
00060a 83a0      	STD  Z+0,R26
00060b 91e0 0844 	LDS  R30,_rx_wr_index_slave
00060d e0f0      	LDI  R31,0
00060e 9735      	SBIW R30,5
00060f 53ed      	SUBI R30,LOW(-_rx_buffer_slave)
000610 4ff8      	SBCI R31,HIGH(-_rx_buffer_slave)
000611 e0a0      	LDI  R26,LOW(0)
000612 83a0      	STD  Z+0,R26
000613 91e0 0844 	LDS  R30,_rx_wr_index_slave
000615 e0f0      	LDI  R31,0
000616 9734      	SBIW R30,4
000617 53ed      	SUBI R30,LOW(-_rx_buffer_slave)
000618 4ff8      	SBCI R31,HIGH(-_rx_buffer_slave)
000619 91a0 05c1 	LDS  R26,_DeviceID_G000
00061b 83a0      	STD  Z+0,R26
                 ; 0000 0117 if(rx_buffer_slave[rx_wr_index_slave-5]==0x97){rx_buffer_slave[rx_wr_index_slave-6]=0x02;rx_buffer_slave[rx_wr_index_sla ...
                 _0x30:
00061c 91e0 0844 	LDS  R30,_rx_wr_index_slave
00061e e0f0      	LDI  R31,0
00061f 9735      	SBIW R30,5
000620 53ed      	SUBI R30,LOW(-_rx_buffer_slave)
000621 4ff8      	SBCI R31,HIGH(-_rx_buffer_slave)
000622 81a0      	LD   R26,Z
000623 39a7      	CPI  R26,LOW(0x97)
000624 f4f9      	BRNE _0x31
000625 91e0 0844 	LDS  R30,_rx_wr_index_slave
000627 e0f0      	LDI  R31,0
000628 9736      	SBIW R30,6
000629 53ed      	SUBI R30,LOW(-_rx_buffer_slave)
00062a 4ff8      	SBCI R31,HIGH(-_rx_buffer_slave)
00062b e0a2      	LDI  R26,LOW(2)
00062c 83a0      	STD  Z+0,R26
00062d 91e0 0844 	LDS  R30,_rx_wr_index_slave
00062f e0f0      	LDI  R31,0
000630 9735      	SBIW R30,5
000631 53ed      	SUBI R30,LOW(-_rx_buffer_slave)
000632 4ff8      	SBCI R31,HIGH(-_rx_buffer_slave)
000633 01bf      	MOVW R22,R30
000634 91a0 05a7 	LDS  R26,_AverSKZ_Value
000636 e0e8      	LDI  R30,LOW(8)
000637 940e 19dd 	CALL __LSRB12
000639 01db      	MOVW R26,R22
00063a 93ec      	ST   X,R30
00063b 91e0 0844 	LDS  R30,_rx_wr_index_slave
00063d e0f0      	LDI  R31,0
00063e 9734      	SBIW R30,4
00063f 53ed      	SUBI R30,LOW(-_rx_buffer_slave)
000640 4ff8      	SBCI R31,HIGH(-_rx_buffer_slave)
000641 91a0 05a7 	LDS  R26,_AverSKZ_Value
000643 83a0      	STD  Z+0,R26
                 ; 0000 0118 if(rx_buffer_slave[rx_wr_index_slave-5]==0x98){rx_buffer_slave[rx_wr_index_slave-6]=0x02;rx_buffer_slave[rx_wr_index_sla ...
                 _0x31:
000644 91e0 0844 	LDS  R30,_rx_wr_index_slave
000646 e0f0      	LDI  R31,0
000647 9735      	SBIW R30,5
000648 53ed      	SUBI R30,LOW(-_rx_buffer_slave)
000649 4ff8      	SBCI R31,HIGH(-_rx_buffer_slave)
00064a 81a0      	LD   R26,Z
00064b 39a8      	CPI  R26,LOW(0x98)
00064c f4d9      	BRNE _0x32
00064d 91e0 0844 	LDS  R30,_rx_wr_index_slave
00064f e0f0      	LDI  R31,0
000650 9736      	SBIW R30,6
000651 53ed      	SUBI R30,LOW(-_rx_buffer_slave)
000652 4ff8      	SBCI R31,HIGH(-_rx_buffer_slave)
000653 e0a2      	LDI  R26,LOW(2)
000654 83a0      	STD  Z+0,R26
000655 91e0 0844 	LDS  R30,_rx_wr_index_slave
000657 e0f0      	LDI  R31,0
000658 9735      	SBIW R30,5
000659 53ed      	SUBI R30,LOW(-_rx_buffer_slave)
00065a 4ff8      	SBCI R31,HIGH(-_rx_buffer_slave)
00065b 01df      	MOVW R26,R30
00065c 91e0 0503 	LDS  R30,_true_skz+1
00065e 93ec      	ST   X,R30
00065f 91e0 0844 	LDS  R30,_rx_wr_index_slave
000661 e0f0      	LDI  R31,0
000662 9734      	SBIW R30,4
000663 53ed      	SUBI R30,LOW(-_rx_buffer_slave)
000664 4ff8      	SBCI R31,HIGH(-_rx_buffer_slave)
000665 91a0 0502 	LDS  R26,_true_skz
000667 83a0      	STD  Z+0,R26
                 ; 0000 0119 if(rx_buffer_slave[rx_wr_index_slave-5]==0x99){rx_buffer_slave[rx_wr_index_slave-6]=0x02;rx_buffer_slave[rx_wr_index_sla ...
                 _0x32:
000668 91e0 0844 	LDS  R30,_rx_wr_index_slave
00066a e0f0      	LDI  R31,0
00066b 9735      	SBIW R30,5
00066c 53ed      	SUBI R30,LOW(-_rx_buffer_slave)
00066d 4ff8      	SBCI R31,HIGH(-_rx_buffer_slave)
00066e 81a0      	LD   R26,Z
00066f 39a9      	CPI  R26,LOW(0x99)
000670 f4b1      	BRNE _0x33
000671 91e0 0844 	LDS  R30,_rx_wr_index_slave
000673 e0f0      	LDI  R31,0
000674 9736      	SBIW R30,6
000675 53ed      	SUBI R30,LOW(-_rx_buffer_slave)
000676 4ff8      	SBCI R31,HIGH(-_rx_buffer_slave)
000677 e0a2      	LDI  R26,LOW(2)
000678 83a0      	STD  Z+0,R26
000679 91e0 0844 	LDS  R30,_rx_wr_index_slave
00067b e0f0      	LDI  R31,0
00067c 9735      	SBIW R30,5
00067d 53ed      	SUBI R30,LOW(-_rx_buffer_slave)
00067e 4ff8      	SBCI R31,HIGH(-_rx_buffer_slave)
00067f 8290      	ST   Z,R9
000680 91e0 0844 	LDS  R30,_rx_wr_index_slave
000682 e0f0      	LDI  R31,0
000683 9734      	SBIW R30,4
000684 53ed      	SUBI R30,LOW(-_rx_buffer_slave)
000685 4ff8      	SBCI R31,HIGH(-_rx_buffer_slave)
000686 8280      	ST   Z,R8
                 ; 0000 011A if(rx_buffer_slave[rx_wr_index_slave-5]==0x9a){rx_buffer_slave[rx_wr_index_slave-6]=0x02;rx_buffer_slave[rx_wr_index_sla ...
                 _0x33:
000687 91e0 0844 	LDS  R30,_rx_wr_index_slave
000689 e0f0      	LDI  R31,0
00068a 9735      	SBIW R30,5
00068b 53ed      	SUBI R30,LOW(-_rx_buffer_slave)
00068c 4ff8      	SBCI R31,HIGH(-_rx_buffer_slave)
00068d 81a0      	LD   R26,Z
00068e 39aa      	CPI  R26,LOW(0x9A)
00068f f4b1      	BRNE _0x34
000690 91e0 0844 	LDS  R30,_rx_wr_index_slave
000692 e0f0      	LDI  R31,0
000693 9736      	SBIW R30,6
000694 53ed      	SUBI R30,LOW(-_rx_buffer_slave)
000695 4ff8      	SBCI R31,HIGH(-_rx_buffer_slave)
000696 e0a2      	LDI  R26,LOW(2)
000697 83a0      	STD  Z+0,R26
000698 91e0 0844 	LDS  R30,_rx_wr_index_slave
00069a e0f0      	LDI  R31,0
00069b 9735      	SBIW R30,5
00069c 53ed      	SUBI R30,LOW(-_rx_buffer_slave)
00069d 4ff8      	SBCI R31,HIGH(-_rx_buffer_slave)
00069e 82b0      	ST   Z,R11
00069f 91e0 0844 	LDS  R30,_rx_wr_index_slave
0006a1 e0f0      	LDI  R31,0
0006a2 9734      	SBIW R30,4
0006a3 53ed      	SUBI R30,LOW(-_rx_buffer_slave)
0006a4 4ff8      	SBCI R31,HIGH(-_rx_buffer_slave)
0006a5 82a0      	ST   Z,R10
                 ; 0000 011B CRCHigh=0xff;
                 _0x34:
0006a6 efef      	LDI  R30,LOW(255)
0006a7 93e0 0598 	STS  _CRCHigh,R30
                 ; 0000 011C CRCLow=0xff;
0006a9 93e0 0599 	STS  _CRCLow,R30
                 ; 0000 011D for (r=0;r<5;r++)
0006ab e0e0      	LDI  R30,LOW(0)
0006ac 93e0 058c 	STS  _r,R30
                 _0x36:
0006ae 91a0 058c 	LDS  R26,_r
0006b0 30a5      	CPI  R26,LOW(0x5)
0006b1 f520      	BRSH _0x37
                 ; 0000 011E {
                 ; 0000 011F 	//#asm("cli");    		        //
                 ; 0000 0120         CRC_update(rx_buffer_slave[r]);
0006b2 91e0 058c 	LDS  R30,_r
0006b4 e0f0      	LDI  R31,0
0006b5 53ed      	SUBI R30,LOW(-_rx_buffer_slave)
0006b6 4ff8      	SBCI R31,HIGH(-_rx_buffer_slave)
0006b7 81a0      	LD   R26,Z
0006b8 940e 17e1 	CALL _CRC_update
                 ; 0000 0121 //	tx_buffer_counter_slave++;	        //
                 ; 0000 0122 	tx_buffer_slave[tx_buffer_end_slave]=rx_buffer_slave[r]; //
0006ba 91a0 08c8 	LDS  R26,_tx_buffer_end_slave
0006bc e0b0      	LDI  R27,0
0006bd 5ba9      	SUBI R26,LOW(-_tx_buffer_slave)
0006be 4fb7      	SBCI R27,HIGH(-_tx_buffer_slave)
0006bf 91e0 058c 	LDS  R30,_r
0006c1 e0f0      	LDI  R31,0
0006c2 53ed      	SUBI R30,LOW(-_rx_buffer_slave)
0006c3 4ff8      	SBCI R31,HIGH(-_rx_buffer_slave)
0006c4 81e0      	LD   R30,Z
0006c5 93ec      	ST   X,R30
                 ; 0000 0123 	if (++tx_buffer_end_slave==TX_BUFFER_SIZE) tx_buffer_end_slave=0;//
0006c6 91a0 08c8 	LDS  R26,_tx_buffer_end_slave
0006c8 5faf      	SUBI R26,-LOW(1)
0006c9 93a0 08c8 	STS  _tx_buffer_end_slave,R26
0006cb 38a0      	CPI  R26,LOW(0x80)
0006cc f419      	BRNE _0x38
0006cd e0e0      	LDI  R30,LOW(0)
0006ce 93e0 08c8 	STS  _tx_buffer_end_slave,R30
                 ; 0000 0124 //	#asm("sei");
                 ; 0000 0125 }
                 _0x38:
0006d0 91e0 058c 	LDS  R30,_r
0006d2 5fef      	SUBI R30,-LOW(1)
0006d3 93e0 058c 	STS  _r,R30
0006d5 cfd8      	RJMP _0x36
                 _0x37:
                 ; 0000 0126 
                 ; 0000 0127 crc_slave=((unsigned int)CRCLow<<8)|CRCHigh;
0006d6 91b0 0599 	LDS  R27,_CRCLow
0006d8 e0a0      	LDI  R26,LOW(0)
0006d9 91e0 0598 	LDS  R30,_CRCHigh
0006db e0f0      	LDI  R31,0
0006dc 2bea      	OR   R30,R26
0006dd 2bfb      	OR   R31,R27
0006de 93e0 059d 	STS  _crc_slave,R30
0006e0 93f0 059e 	STS  _crc_slave+1,R31
                 ; 0000 0128    //     tx_buffer_counter_slave++;
                 ; 0000 0129    //     #asm("cli");        //
                 ; 0000 012A 	tx_buffer_slave[tx_buffer_end_slave]=crc_slave; //
0006e2 91e0 08c8 	LDS  R30,_tx_buffer_end_slave
0006e4 e0f0      	LDI  R31,0
0006e5 5be9      	SUBI R30,LOW(-_tx_buffer_slave)
0006e6 4ff7      	SBCI R31,HIGH(-_tx_buffer_slave)
0006e7 91a0 059d 	LDS  R26,_crc_slave
0006e9 83a0      	STD  Z+0,R26
                 ; 0000 012B 	if (++tx_buffer_end_slave==TX_BUFFER_SIZE) tx_buffer_end_slave=0;
0006ea 91a0 08c8 	LDS  R26,_tx_buffer_end_slave
0006ec 5faf      	SUBI R26,-LOW(1)
0006ed 93a0 08c8 	STS  _tx_buffer_end_slave,R26
0006ef 38a0      	CPI  R26,LOW(0x80)
0006f0 f419      	BRNE _0x39
0006f1 e0e0      	LDI  R30,LOW(0)
0006f2 93e0 08c8 	STS  _tx_buffer_end_slave,R30
                 ; 0000 012C     //    tx_buffer_counter_slave++;	        //
                 ; 0000 012D 	tx_buffer_slave[tx_buffer_end_slave]=(crc_slave>>8); //
                 _0x39:
0006f4 91a0 08c8 	LDS  R26,_tx_buffer_end_slave
0006f6 e0b0      	LDI  R27,0
0006f7 5ba9      	SUBI R26,LOW(-_tx_buffer_slave)
0006f8 4fb7      	SBCI R27,HIGH(-_tx_buffer_slave)
0006f9 91e0 059d 	LDS  R30,_crc_slave
0006fb 91f0 059e 	LDS  R31,_crc_slave+1
0006fd 940e 19f5 	CALL __ASRW8
0006ff 93ec      	ST   X,R30
                 ; 0000 012E 	if (++tx_buffer_end_slave==TX_BUFFER_SIZE) tx_buffer_end_slave=0;
000700 91a0 08c8 	LDS  R26,_tx_buffer_end_slave
000702 5faf      	SUBI R26,-LOW(1)
000703 93a0 08c8 	STS  _tx_buffer_end_slave,R26
000705 38a0      	CPI  R26,LOW(0x80)
000706 f419      	BRNE _0x3A
000707 e0e0      	LDI  R30,LOW(0)
000708 93e0 08c8 	STS  _tx_buffer_end_slave,R30
                 ; 0000 012F 	TX_slave_on;                            //
                 _0x3A:
00070a 9a1a      	SBI  0x3,2
                 ; 0000 0130     tx_en_slave=1;crc_slave=0xffff;transmitter_on;
00070b 9468      	SET
00070c f833      	BLD  R3,3
00070d efef      	LDI  R30,LOW(65535)
00070e efff      	LDI  R31,HIGH(65535)
00070f 93e0 059d 	STS  _crc_slave,R30
000711 93f0 059e 	STS  _crc_slave+1,R31
000713 ede8      	LDI  R30,LOW(216)
000714 b9ea      	OUT  0xA,R30
                 ; 0000 0131     #asm("cli");
000715 94f8      	cli
                 ; 0000 0132     UDR0=tx_buffer_slave[tx_buffer_begin_slave];
000716 91e0 08c7 	LDS  R30,_tx_buffer_begin_slave
000718 e0f0      	LDI  R31,0
000719 5be9      	SUBI R30,LOW(-_tx_buffer_slave)
00071a 4ff7      	SBCI R31,HIGH(-_tx_buffer_slave)
00071b 81e0      	LD   R30,Z
00071c b9ec      	OUT  0xC,R30
                 ; 0000 0133     #asm("sei");
00071d 9478      	sei
                 ; 0000 0134 //rx_c_slave=0;rx_m_slave=0;rx_wr_index_slave=0;rx_counter_slave=0;
                 ; 0000 0135 }//w=w+8;//TX_slave_on;
                 ; 0000 0136 
                 ; 0000 0137 }//rx_c_slave=0;rx_m_slave=0;rx_wr_index_slave=0;rx_counter_slave=0;
                 _0x29:
                 ; 0000 0138 }
                 _0x1A:
                 ; 0000 0139  if(rx_c_slave==1&mod_time_slave==0){rx_c_slave=0;rx_m_slave=0;rx_wr_index_slave=0;rx_counter_slave=0;//rd_counts=0;
                 _0x19:
00071e e0a0      	LDI  R26,0
00071f fc35      	SBRC R3,5
000720 e0a1      	LDI  R26,1
000721 e0e1      	LDI  R30,LOW(1)
000722 940e 19ff 	CALL __EQB12
000724 2e0e      	MOV  R0,R30
000725 91a0 0846 	LDS  R26,_mod_time_slave
000727 e0e0      	LDI  R30,LOW(0)
000728 940e 19ff 	CALL __EQB12
00072a 21e0      	AND  R30,R0
00072b f041      	BREQ _0x3B
00072c 94e8      	CLT
00072d f835      	BLD  R3,5
00072e f834      	BLD  R3,4
00072f e0e0      	LDI  R30,LOW(0)
000730 93e0 0844 	STS  _rx_wr_index_slave,R30
000732 93e0 0845 	STS  _rx_counter_slave,R30
                 ; 0000 013A  }
                 ; 0000 013B 	}
                 _0x3B:
000734 940e 1a7c 	CALL __LOADLOCR4
000736 9624      	ADIW R28,4
000737 91e9      	LD   R30,Y+
000738 bfef      	OUT  SREG,R30
000739 91f9      	LD   R31,Y+
00073a 91e9      	LD   R30,Y+
00073b 91b9      	LD   R27,Y+
00073c 91a9      	LD   R26,Y+
00073d 9199      	LD   R25,Y+
00073e 9189      	LD   R24,Y+
00073f 9179      	LD   R23,Y+
000740 9169      	LD   R22,Y+
000741 90f9      	LD   R15,Y+
000742 9019      	LD   R1,Y+
000743 9009      	LD   R0,Y+
000744 9518      	RETI
                 ; .FEND
                 ;//--------------------------------------//
                 ;// USART1 Transmitter interrupt service routine
                 ;//--------------------------------------//
                 ;
                 ;char tx_buffer_master[TX_BUFFER_SIZE];
                 ;unsigned char tx_buffer_begin_master,tx_buffer_end_master;
                 ;interrupt [USART1_TXC] void usart1_tx_isr(void)
                 ; 0000 0143 	{
                 _usart1_tx_isr:
                 ; .FSTART _usart1_tx_isr
000745 938a      	ST   -Y,R24
000746 939a      	ST   -Y,R25
000747 93aa      	ST   -Y,R26
000748 93ea      	ST   -Y,R30
000749 93fa      	ST   -Y,R31
00074a b7ef      	IN   R30,SREG
00074b 93ea      	ST   -Y,R30
                 ; 0000 0144 
                 ; 0000 0145 	if (tx_en_master==1)
00074c fe20      	SBRS R2,0
00074d c021      	RJMP _0x3C
                 ; 0000 0146 		{
                 ; 0000 0147 		delay_us(100);
                +
00074e ec88     +LDI R24 , LOW ( 200 )
00074f e090     +LDI R25 , HIGH ( 200 )
                +__DELAY_USW_LOOP :
000750 9701     +SBIW R24 , 1
000751 f7f1     +BRNE __DELAY_USW_LOOP
                 	__DELAY_USW 200
                 ; 0000 0148 		if (++tx_buffer_begin_master>=TX_BUFFER_SIZE) tx_buffer_begin_master=0;
000752 91a0 0949 	LDS  R26,_tx_buffer_begin_master
000754 5faf      	SUBI R26,-LOW(1)
000755 93a0 0949 	STS  _tx_buffer_begin_master,R26
000757 38a0      	CPI  R26,LOW(0x80)
000758 f018      	BRLO _0x3D
000759 e0e0      	LDI  R30,LOW(0)
00075a 93e0 0949 	STS  _tx_buffer_begin_master,R30
                 ; 0000 0149 		if (tx_buffer_begin_master!=tx_buffer_end_master) {UDR1=tx_buffer_master[tx_buffer_begin_master];}
                 _0x3D:
00075c 91e0 094a 	LDS  R30,_tx_buffer_end_master
00075e 91a0 0949 	LDS  R26,_tx_buffer_begin_master
000760 17ea      	CP   R30,R26
000761 f049      	BREQ _0x3E
000762 91e0 0949 	LDS  R30,_tx_buffer_begin_master
000764 e0f0      	LDI  R31,0
000765 53e7      	SUBI R30,LOW(-_tx_buffer_master)
000766 4ff7      	SBCI R31,HIGH(-_tx_buffer_master)
000767 81e0      	LD   R30,Z
000768 93e0 009c 	STS  156,R30
                 ; 0000 014A 		else {tx_en_master=0;rx_m_master=0;TX_master_off;}
00076a c004      	RJMP _0x3F
                 _0x3E:
00076b 94e8      	CLT
00076c f820      	BLD  R2,0
00076d f821      	BLD  R2,1
00076e 9894      	CBI  0x12,4
                 _0x3F:
                 ; 0000 014B 		}
                 ; 0000 014C 
                 ; 0000 014D 	}
                 _0x3C:
00076f 91e9      	LD   R30,Y+
000770 bfef      	OUT  SREG,R30
000771 91f9      	LD   R31,Y+
000772 91e9      	LD   R30,Y+
000773 91a9      	LD   R26,Y+
000774 9199      	LD   R25,Y+
000775 9189      	LD   R24,Y+
000776 9518      	RETI
                 ; .FEND
                 ;//--------------------------------------//
                 ;// USART0 Transmitter interrupt service routine
                 ;//--------------------------------------//
                 ;
                 ;interrupt [USART0_TXC] void usart0_tx_isr(void)
                 ; 0000 0153 	{
                 _usart0_tx_isr:
                 ; .FSTART _usart0_tx_isr
000777 93aa      	ST   -Y,R26
000778 93ea      	ST   -Y,R30
000779 93fa      	ST   -Y,R31
00077a b7ef      	IN   R30,SREG
00077b 93ea      	ST   -Y,R30
                 ; 0000 0154      #asm("cli");
00077c 94f8      	cli
                 ; 0000 0155        //#asm ("cli")
                 ; 0000 0156 	if (tx_en_slave==1)
00077d fe33      	SBRS R3,3
00077e c024      	RJMP _0x42
                 ; 0000 0157 		{
                 ; 0000 0158 		if (++tx_buffer_begin_slave>=TX_BUFFER_SIZE) tx_buffer_begin_slave=0;
00077f 91a0 08c7 	LDS  R26,_tx_buffer_begin_slave
000781 5faf      	SUBI R26,-LOW(1)
000782 93a0 08c7 	STS  _tx_buffer_begin_slave,R26
000784 38a0      	CPI  R26,LOW(0x80)
000785 f018      	BRLO _0x43
000786 e0e0      	LDI  R30,LOW(0)
000787 93e0 08c7 	STS  _tx_buffer_begin_slave,R30
                 ; 0000 0159 		if (tx_buffer_begin_slave!=tx_buffer_end_slave) {UDR0=tx_buffer_slave[tx_buffer_begin_slave];}
                 _0x43:
000789 91e0 08c8 	LDS  R30,_tx_buffer_end_slave
00078b 91a0 08c7 	LDS  R26,_tx_buffer_begin_slave
00078d 17ea      	CP   R30,R26
00078e f041      	BREQ _0x44
00078f 91e0 08c7 	LDS  R30,_tx_buffer_begin_slave
000791 e0f0      	LDI  R31,0
000792 5be9      	SUBI R30,LOW(-_tx_buffer_slave)
000793 4ff7      	SBCI R31,HIGH(-_tx_buffer_slave)
000794 81e0      	LD   R30,Z
000795 b9ec      	OUT  0xC,R30
                 ; 0000 015A 		else {tx_en_slave=0;rx_m_slave=0;TX_slave_off;tx_buffer_begin_slave=0;tx_buffer_end_slave=0;uart_slave_disable;transmi ...
000796 c00c      	RJMP _0x45
                 _0x44:
000797 94e8      	CLT
000798 f833      	BLD  R3,3
000799 f834      	BLD  R3,4
00079a 981a      	CBI  0x3,2
00079b e0e0      	LDI  R30,LOW(0)
00079c 93e0 08c7 	STS  _tx_buffer_begin_slave,R30
00079e 93e0 08c8 	STS  _tx_buffer_end_slave,R30
0007a0 b9ea      	OUT  0xA,R30
0007a1 e9e0      	LDI  R30,LOW(144)
0007a2 b9ea      	OUT  0xA,R30
                 _0x45:
                 ; 0000 015B        	}
                 ; 0000 015C         //new_message=0;
                 ; 0000 015D           //  #asm ("sei")
                 ; 0000 015E         #asm("sei");
                 _0x42:
0007a3 9478      	sei
                 ; 0000 015F 	}
0007a4 91e9      	LD   R30,Y+
0007a5 bfef      	OUT  SREG,R30
0007a6 91f9      	LD   R31,Y+
0007a7 91e9      	LD   R30,Y+
0007a8 91a9      	LD   R26,Y+
0007a9 9518      	RETI
                 ; .FEND
                 ;//--------------------------------------//
                 ;// Timer 0 overflow interrupt service routine
                 ;//--------------------------------------//
                 ;interrupt [TIM0_OVF] void timer0_ovf_isr(void)
                 ; 0000 0164         {
                 _timer0_ovf_isr:
                 ; .FSTART _timer0_ovf_isr
0007aa 93ea      	ST   -Y,R30
0007ab b7ef      	IN   R30,SREG
0007ac 93ea      	ST   -Y,R30
                 ; 0000 0165         #asm ("cli")
0007ad 94f8      	cli
                 ; 0000 0166         TCNT0=0x07;//250us
0007ae e0e7      	LDI  R30,LOW(7)
0007af bfe2      	OUT  0x32,R30
                 ; 0000 0167 	//#asm("wdr");
                 ; 0000 0168 	if (mod_time_slave==0){if(rx_m_slave==1) rx_c_slave=1;}   else 	mod_time_slave--;
0007b0 91e0 0846 	LDS  R30,_mod_time_slave
0007b2 30e0      	CPI  R30,0
0007b3 f429      	BRNE _0x46
0007b4 fe34      	SBRS R3,4
0007b5 c002      	RJMP _0x47
0007b6 9468      	SET
0007b7 f835      	BLD  R3,5
                 _0x47:
0007b8 c005      	RJMP _0x48
                 _0x46:
0007b9 91e0 0846 	LDS  R30,_mod_time_slave
0007bb 50e1      	SUBI R30,LOW(1)
0007bc 93e0 0846 	STS  _mod_time_slave,R30
                 ; 0000 0169 	if (mod_time_master==0){if(rx_m_master==1) rx_c_master=1;}else 	mod_time_master--;
                 _0x48:
0007be 91e0 0597 	LDS  R30,_mod_time_master
0007c0 30e0      	CPI  R30,0
0007c1 f429      	BRNE _0x49
0007c2 fe21      	SBRS R2,1
0007c3 c002      	RJMP _0x4A
0007c4 9468      	SET
0007c5 f822      	BLD  R2,2
                 _0x4A:
0007c6 c005      	RJMP _0x4B
                 _0x49:
0007c7 91e0 0597 	LDS  R30,_mod_time_master
0007c9 50e1      	SUBI R30,LOW(1)
0007ca 93e0 0597 	STS  _mod_time_master,R30
                 ; 0000 016A 
                 ; 0000 016B     #asm ("sei")
                 _0x4B:
0007cc 9478      	sei
                 ; 0000 016C         }
0007cd 91e9      	LD   R30,Y+
0007ce bfef      	OUT  SREG,R30
0007cf 91e9      	LD   R30,Y+
0007d0 9518      	RETI
                 ; .FEND
                 ;//--------------------------------------//
                 ;// SPI interrupt service routine
                 ;interrupt [SPI_STC] void spi_isr(void)
                 ; 0000 0170 {
                 _spi_isr:
                 ; .FSTART _spi_isr
0007d1 938a      	ST   -Y,R24
0007d2 939a      	ST   -Y,R25
0007d3 93ea      	ST   -Y,R30
0007d4 b7ef      	IN   R30,SREG
0007d5 93ea      	ST   -Y,R30
                 ; 0000 0171 //unsigned char data;
                 ; 0000 0172 //data=SPDR;
                 ; 0000 0173 // Place your code here
                 ; 0000 0174 if(SPI_tEnd==0){
0007d6 91e0 058e 	LDS  R30,_SPI_tEnd
0007d8 30e0      	CPI  R30,0
0007d9 f459      	BRNE _0x4C
                 ; 0000 0175 SPDR=tok;
0007da 91e0 05b1 	LDS  R30,_tok
0007dc b9ef      	OUT  0xF,R30
                 ; 0000 0176 SPI_tEnd=1;
0007dd e0e1      	LDI  R30,LOW(1)
0007de 93e0 058e 	STS  _SPI_tEnd,R30
                 ; 0000 0177 delay_us(200);
                +
0007e0 e980     +LDI R24 , LOW ( 400 )
0007e1 e091     +LDI R25 , HIGH ( 400 )
                +__DELAY_USW_LOOP :
0007e2 9701     +SBIW R24 , 1
0007e3 f7f1     +BRNE __DELAY_USW_LOOP
                 	__DELAY_USW 400
                 ; 0000 0178 PORTB.4=0;
0007e4 98c4      	CBI  0x18,4
                 ; 0000 0179 PORTB.0=1;
                 ; 0000 017A }
                 ; 0000 017B //delay_us(2);
                 ; 0000 017C else PORTB.0=1;
                 _0x4C:
                 _0x416:
0007e5 9ac0      	SBI  0x18,0
                 ; 0000 017D //else PORTB.0=1;
                 ; 0000 017E }
0007e6 91e9      	LD   R30,Y+
0007e7 bfef      	OUT  SREG,R30
0007e8 91e9      	LD   R30,Y+
0007e9 9199      	LD   R25,Y+
0007ea 9189      	LD   R24,Y+
0007eb 9518      	RETI
                 ; .FEND
                 ;//-------------------------------------------
                 ;// μξδσλό ςξκξβξγξ θνςεπτειρΰ
                 ;//-------------------------------------------
                 ;void current_out(unsigned int out)
                 ; 0000 0183         {
                 _current_out:
                 ; .FSTART _current_out
                 ; 0000 0184 //        char i;
                 ; 0000 0185 //        DDRB = DDRB|0b00110111;
                 ; 0000 0186 //        PORTB=PORTB|0b00110111;
                 ; 0000 0187 //        PORTB.0=0;//
                 ; 0000 0188 //        out=out<<4;
                 ; 0000 0189 //        for (i=0;i<12;i++)
                 ; 0000 018A //                {
                 ; 0000 018B //                if(out>=0x8000)PORTB.2=1;//
                 ; 0000 018C //                else PORTB.2=0;//
                 ; 0000 018D //                PORTB.1=0;PORTB.1=1;//
                 ; 0000 018E //                out<<=1;
                 ; 0000 018F //                }
                 ; 0000 0190 //        PORTB.0=1;PORTB.4=0;PORTB.4=1;
                 ; 0000 0191            PORTB.4=0;
0007ec 93ba      	ST   -Y,R27
0007ed 93aa      	ST   -Y,R26
                 ;	out -> Y+0
0007ee 98c4      	CBI  0x18,4
                 ; 0000 0192            delay_us(200);
                +
0007ef e980     +LDI R24 , LOW ( 400 )
0007f0 e091     +LDI R25 , HIGH ( 400 )
                +__DELAY_USW_LOOP :
0007f1 9701     +SBIW R24 , 1
0007f2 f7f1     +BRNE __DELAY_USW_LOOP
                 	__DELAY_USW 400
                 ; 0000 0193            PORTB.4=1;PORTB.0=0;
0007f3 9ac4      	SBI  0x18,4
0007f4 98c0      	CBI  0x18,0
                 ; 0000 0194            delay_us(200);
                +
0007f5 e980     +LDI R24 , LOW ( 400 )
0007f6 e091     +LDI R25 , HIGH ( 400 )
                +__DELAY_USW_LOOP :
0007f7 9701     +SBIW R24 , 1
0007f8 f7f1     +BRNE __DELAY_USW_LOOP
                 	__DELAY_USW 400
                 ; 0000 0195 //        PORTB.2=1;
                 ; 0000 0196 //        PORTB.0=0;
                 ; 0000 0197         if(SPI_tEnd==1)
0007f9 91a0 058e 	LDS  R26,_SPI_tEnd
0007fb 30a1      	CPI  R26,LOW(0x1)
0007fc f431      	BRNE _0x5A
                 ; 0000 0198             {SPI_tEnd=0;
0007fd e0e0      	LDI  R30,LOW(0)
0007fe 93e0 058e 	STS  _SPI_tEnd,R30
                 ; 0000 0199 
                 ; 0000 019A              SPDR=out>>8;
000800 81e9      	LDD  R30,Y+1
000801 70f0      	ANDI R31,HIGH(0x0)
000802 b9ef      	OUT  0xF,R30
                 ; 0000 019B             // PORTB.2=0;
                 ; 0000 019C             // PORTB.4=0;
                 ; 0000 019D             }
                 ; 0000 019E         }
                 _0x5A:
000803 c017      	RJMP _0x20A0006
                 ; .FEND
                 ;
                 ;
                 ;void EEPROM_write(unsigned int eeAddress, unsigned char eeData)
                 ; 0000 01A2 {
                 _EEPROM_write:
                 ; .FSTART _EEPROM_write
                 ; 0000 01A3 /* Wait for completion of previous write */
                 ; 0000 01A4 while(EECR&0x02)//  (1<<EEWE))
000804 93aa      	ST   -Y,R26
                 ;	eeAddress -> Y+1
                 ;	eeData -> Y+0
                 _0x5B:
000805 99e1      	SBIC 0x1C,1
                 ; 0000 01A5 ;
000806 cffe      	RJMP _0x5B
                 ; 0000 01A6 /* Set up address and data registers */
                 ; 0000 01A7 EEAR = eeAddress;
000807 81e9      	LDD  R30,Y+1
000808 81fa      	LDD  R31,Y+1+1
000809 bbff      	OUT  0x1E+1,R31
00080a bbee      	OUT  0x1E,R30
                 ; 0000 01A8 EEDR = eeData;
00080b 81e8      	LD   R30,Y
00080c bbed      	OUT  0x1D,R30
                 ; 0000 01A9 /* Write logical one to EEMWE */
                 ; 0000 01AA EECR |= 0x04;//(1<<EEMWE);
00080d 9ae2      	SBI  0x1C,2
                 ; 0000 01AB /* Start eeprom write by setting EEWE */
                 ; 0000 01AC EECR |= 0x02;//(1<<EEWE);
00080e 9ae1      	SBI  0x1C,1
                 ; 0000 01AD  }
00080f 9623      	ADIW R28,3
000810 9508      	RET
                 ; .FEND
                 ;
                 ;
                 ;
                 ;unsigned char EEPROM_read(unsigned int eeAddress)
                 ; 0000 01B2 {
                 _EEPROM_read:
                 ; .FSTART _EEPROM_read
                 ; 0000 01B3 /* Wait for completion of previous write */
                 ; 0000 01B4 while(EECR & 0x02)//(1<<EEWE))
000811 93ba      	ST   -Y,R27
000812 93aa      	ST   -Y,R26
                 ;	eeAddress -> Y+0
                 _0x5E:
000813 99e1      	SBIC 0x1C,1
                 ; 0000 01B5 ;
000814 cffe      	RJMP _0x5E
                 ; 0000 01B6 /* Set up address register */
                 ; 0000 01B7 EEAR = eeAddress;
000815 81e8      	LD   R30,Y
000816 81f9      	LDD  R31,Y+1
000817 bbff      	OUT  0x1E+1,R31
000818 bbee      	OUT  0x1E,R30
                 ; 0000 01B8 /* Start eeprom read by writing EERE */
                 ; 0000 01B9 EECR |= 0x01;//(1<<EERE);
000819 9ae0      	SBI  0x1C,0
                 ; 0000 01BA /* Return data from data register */
                 ; 0000 01BB return EEDR;
00081a b3ed      	IN   R30,0x1D
                 _0x20A0006:
00081b 9622      	ADIW R28,2
00081c 9508      	RET
                 ; 0000 01BC }
                 ; .FEND
                 ;
                 ;void eeprom_reset()
                 ; 0000 01BF {
                 ; 0000 01C0     int i;
                 ; 0000 01C1     for(i=0;i<0x1000;i++)
                 ;	i -> R16,R17
                 ; 0000 01C2     {
                 ; 0000 01C3     if(i==eeAddressModBusAddr)i++;
                 ; 0000 01C4     EEPROM_write(i,0xff);
                 ; 0000 01C5     }
                 ; 0000 01C6 }
                 ;
                 ;//--------------------------------------//
                 ;
                 ;
                 ;eeprom float kv=100;
                 ;eeprom float kn=100;
                 ;
                 ;unsigned char save_reg(unsigned int d,unsigned int a);
                 ;char check_cr_master();
                 ;char check_cr_slave();
                 ;void crc_rtu_master(char a);			//
                 ;void crc_rtu_slave(char a);			//
                 ;void crc_end_master();			//
                 ;	//
                 ;void mov_buf_master(char a);
                 ;void mov_buf0(char a);			//
                 ;void mov_buf_slave(char a);
                 ;void mov_buf1(char a);			//
                 ;unsigned int valskz;
                 ;void response_m_err(char a);                     //
                 ;void response_m_aa4();                     //
                 ;void response_m_aa6();                     //
                 ;
                 ;
                 ;void led(unsigned char a)
                 ; 0000 01E0         {
                 _led:
                 ; .FSTART _led
                 ; 0000 01E1         switch (a)
00081d 93aa      	ST   -Y,R26
                 ;	a -> Y+0
00081e 81e8      	LD   R30,Y
00081f e0f0      	LDI  R31,0
                 ; 0000 01E2                 {
                 ; 0000 01E3                 case 0: {
000820 9730      	SBIW R30,0
000821 f589      	BRNE _0x68
                 ; 0000 01E4           led_20_off;led_19_off;led_18_off;led_17_off;led_16_off;led_15_off;led_14_off;led_13_off;led_12_off;led_11_off;
000822 91e0 0062 	LDS  R30,98
000824 7feb      	ANDI R30,0xFB
000825 93e0 0062 	STS  98,R30
000827 91e0 0062 	LDS  R30,98
000829 7fee      	ANDI R30,0xFE
00082a 93e0 0062 	STS  98,R30
00082c 91e0 0062 	LDS  R30,98
00082e 7bef      	ANDI R30,0xBF
00082f 93e0 0062 	STS  98,R30
000831 91e0 0062 	LDS  R30,98
000833 7fed      	ANDI R30,0xFD
000834 93e0 0062 	STS  98,R30
000836 91e0 0062 	LDS  R30,98
000838 7fe7      	ANDI R30,0XF7
000839 93e0 0062 	STS  98,R30
00083b 91e0 0062 	LDS  R30,98
00083d 7def      	ANDI R30,0xDF
00083e 93e0 0062 	STS  98,R30
000840 91e0 0062 	LDS  R30,98
000842 77ef      	ANDI R30,0x7F
000843 93e0 0062 	STS  98,R30
000845 98d8      	CBI  0x1B,0
000846 98d9      	CBI  0x1B,1
000847 98db      	CBI  0x1B,3
                 ; 0000 01E5           led_10_off;led_09_off;led_08_off;led_07_off;led_06_off;led_05_off;led_04_off;led_03_on;led_02_on;led_01_on;bre ...
000848 98dc      	CBI  0x1B,4
000849 98dd      	CBI  0x1B,5
00084a 98de      	CBI  0x1B,6
00084b 98df      	CBI  0x1B,7
00084c 98ae      	CBI  0x15,6
00084d 98af      	CBI  0x15,7
00084e 98ac      	CBI  0x15,4
00084f 9aab      	SBI  0x15,3
000850 9aaa      	SBI  0x15,2
000851 9aa9      	SBI  0x15,1
000852 c33b      	RJMP _0x67
                 ; 0000 01E6                 case 1: {
                 _0x68:
000853 30e1      	CPI  R30,LOW(0x1)
000854 e0a0      	LDI  R26,HIGH(0x1)
000855 07fa      	CPC  R31,R26
000856 f589      	BRNE _0x83
                 ; 0000 01E7           led_20_off;led_19_off;led_18_off;led_17_off;led_16_off;led_15_off;led_14_off;led_13_off;led_12_off;led_11_off;
000857 91e0 0062 	LDS  R30,98
000859 7feb      	ANDI R30,0xFB
00085a 93e0 0062 	STS  98,R30
00085c 91e0 0062 	LDS  R30,98
00085e 7fee      	ANDI R30,0xFE
00085f 93e0 0062 	STS  98,R30
000861 91e0 0062 	LDS  R30,98
000863 7bef      	ANDI R30,0xBF
000864 93e0 0062 	STS  98,R30
000866 91e0 0062 	LDS  R30,98
000868 7fed      	ANDI R30,0xFD
000869 93e0 0062 	STS  98,R30
00086b 91e0 0062 	LDS  R30,98
00086d 7fe7      	ANDI R30,0XF7
00086e 93e0 0062 	STS  98,R30
000870 91e0 0062 	LDS  R30,98
000872 7def      	ANDI R30,0xDF
000873 93e0 0062 	STS  98,R30
000875 91e0 0062 	LDS  R30,98
000877 77ef      	ANDI R30,0x7F
000878 93e0 0062 	STS  98,R30
00087a 98d8      	CBI  0x1B,0
00087b 98d9      	CBI  0x1B,1
00087c 98db      	CBI  0x1B,3
                 ; 0000 01E8           led_10_off;led_09_off;led_08_off;led_07_off;led_06_off;led_05_off;led_04_off;led_03_off;led_02_off;led_01_on;b ...
00087d 98dc      	CBI  0x1B,4
00087e 98dd      	CBI  0x1B,5
00087f 98de      	CBI  0x1B,6
000880 98df      	CBI  0x1B,7
000881 98ae      	CBI  0x15,6
000882 98af      	CBI  0x15,7
000883 98ac      	CBI  0x15,4
000884 98ab      	CBI  0x15,3
000885 98aa      	CBI  0x15,2
000886 9aa9      	SBI  0x15,1
000887 c306      	RJMP _0x67
                 ; 0000 01E9                 case 2: {
                 _0x83:
000888 30e2      	CPI  R30,LOW(0x2)
000889 e0a0      	LDI  R26,HIGH(0x2)
00088a 07fa      	CPC  R31,R26
00088b f589      	BRNE _0x9E
                 ; 0000 01EA           led_20_off;led_19_off;led_18_off;led_17_off;led_16_off;led_15_off;led_14_off;led_13_off;led_12_off;led_11_off;
00088c 91e0 0062 	LDS  R30,98
00088e 7feb      	ANDI R30,0xFB
00088f 93e0 0062 	STS  98,R30
000891 91e0 0062 	LDS  R30,98
000893 7fee      	ANDI R30,0xFE
000894 93e0 0062 	STS  98,R30
000896 91e0 0062 	LDS  R30,98
000898 7bef      	ANDI R30,0xBF
000899 93e0 0062 	STS  98,R30
00089b 91e0 0062 	LDS  R30,98
00089d 7fed      	ANDI R30,0xFD
00089e 93e0 0062 	STS  98,R30
0008a0 91e0 0062 	LDS  R30,98
0008a2 7fe7      	ANDI R30,0XF7
0008a3 93e0 0062 	STS  98,R30
0008a5 91e0 0062 	LDS  R30,98
0008a7 7def      	ANDI R30,0xDF
0008a8 93e0 0062 	STS  98,R30
0008aa 91e0 0062 	LDS  R30,98
0008ac 77ef      	ANDI R30,0x7F
0008ad 93e0 0062 	STS  98,R30
0008af 98d8      	CBI  0x1B,0
0008b0 98d9      	CBI  0x1B,1
0008b1 98db      	CBI  0x1B,3
                 ; 0000 01EB           led_10_off;led_09_off;led_08_off;led_07_off;led_06_off;led_05_off;led_04_off;led_03_off;led_02_on;led_01_on;br ...
0008b2 98dc      	CBI  0x1B,4
0008b3 98dd      	CBI  0x1B,5
0008b4 98de      	CBI  0x1B,6
0008b5 98df      	CBI  0x1B,7
0008b6 98ae      	CBI  0x15,6
0008b7 98af      	CBI  0x15,7
0008b8 98ac      	CBI  0x15,4
0008b9 98ab      	CBI  0x15,3
0008ba 9aaa      	SBI  0x15,2
0008bb 9aa9      	SBI  0x15,1
0008bc c2d1      	RJMP _0x67
                 ; 0000 01EC                 case 3: {
                 _0x9E:
0008bd 30e3      	CPI  R30,LOW(0x3)
0008be e0a0      	LDI  R26,HIGH(0x3)
0008bf 07fa      	CPC  R31,R26
0008c0 f589      	BRNE _0xB9
                 ; 0000 01ED           led_20_off;led_19_off;led_18_off;led_17_off;led_16_off;led_15_off;led_14_off;led_13_off;led_12_off;led_11_off;
0008c1 91e0 0062 	LDS  R30,98
0008c3 7feb      	ANDI R30,0xFB
0008c4 93e0 0062 	STS  98,R30
0008c6 91e0 0062 	LDS  R30,98
0008c8 7fee      	ANDI R30,0xFE
0008c9 93e0 0062 	STS  98,R30
0008cb 91e0 0062 	LDS  R30,98
0008cd 7bef      	ANDI R30,0xBF
0008ce 93e0 0062 	STS  98,R30
0008d0 91e0 0062 	LDS  R30,98
0008d2 7fed      	ANDI R30,0xFD
0008d3 93e0 0062 	STS  98,R30
0008d5 91e0 0062 	LDS  R30,98
0008d7 7fe7      	ANDI R30,0XF7
0008d8 93e0 0062 	STS  98,R30
0008da 91e0 0062 	LDS  R30,98
0008dc 7def      	ANDI R30,0xDF
0008dd 93e0 0062 	STS  98,R30
0008df 91e0 0062 	LDS  R30,98
0008e1 77ef      	ANDI R30,0x7F
0008e2 93e0 0062 	STS  98,R30
0008e4 98d8      	CBI  0x1B,0
0008e5 98d9      	CBI  0x1B,1
0008e6 98db      	CBI  0x1B,3
                 ; 0000 01EE           led_10_off;led_09_off;led_08_off;led_07_off;led_06_off;led_05_off;led_04_off;led_03_on;led_02_on;led_01_on;bre ...
0008e7 98dc      	CBI  0x1B,4
0008e8 98dd      	CBI  0x1B,5
0008e9 98de      	CBI  0x1B,6
0008ea 98df      	CBI  0x1B,7
0008eb 98ae      	CBI  0x15,6
0008ec 98af      	CBI  0x15,7
0008ed 98ac      	CBI  0x15,4
0008ee 9aab      	SBI  0x15,3
0008ef 9aaa      	SBI  0x15,2
0008f0 9aa9      	SBI  0x15,1
0008f1 c29c      	RJMP _0x67
                 ; 0000 01EF                 case 4: {
                 _0xB9:
0008f2 30e4      	CPI  R30,LOW(0x4)
0008f3 e0a0      	LDI  R26,HIGH(0x4)
0008f4 07fa      	CPC  R31,R26
0008f5 f569      	BRNE _0xD4
                 ; 0000 01F0           led_20_off;led_19_off;led_18_off;led_17_off;led_16_off;led_15_off;led_14_off;led_13_off;led_12_off;led_11_off;
0008f6 91e0 0062 	LDS  R30,98
0008f8 7feb      	ANDI R30,0xFB
0008f9 93e0 0062 	STS  98,R30
0008fb 91e0 0062 	LDS  R30,98
0008fd 7fee      	ANDI R30,0xFE
0008fe 93e0 0062 	STS  98,R30
000900 91e0 0062 	LDS  R30,98
000902 7bef      	ANDI R30,0xBF
000903 93e0 0062 	STS  98,R30
000905 91e0 0062 	LDS  R30,98
000907 7fed      	ANDI R30,0xFD
000908 93e0 0062 	STS  98,R30
00090a 91e0 0062 	LDS  R30,98
00090c 7fe7      	ANDI R30,0XF7
00090d 93e0 0062 	STS  98,R30
00090f 91e0 0062 	LDS  R30,98
000911 7def      	ANDI R30,0xDF
000912 93e0 0062 	STS  98,R30
000914 91e0 0062 	LDS  R30,98
000916 77ef      	ANDI R30,0x7F
000917 93e0 0062 	STS  98,R30
000919 98d8      	CBI  0x1B,0
00091a 98d9      	CBI  0x1B,1
00091b 98db      	CBI  0x1B,3
                 ; 0000 01F1           led_10_off;led_09_off;led_08_off;led_07_off;led_06_off;led_05_off;led_04_on;led_03_off;led_02_off;led_01_off;b ...
00091c 98dc      	CBI  0x1B,4
00091d 98dd      	CBI  0x1B,5
00091e 98de      	CBI  0x1B,6
00091f 98df      	CBI  0x1B,7
000920 98ae      	CBI  0x15,6
000921 98af      	CBI  0x15,7
000922 c267      	RJMP _0x417
                 ; 0000 01F2                 case 5: {
                 _0xD4:
000923 30e5      	CPI  R30,LOW(0x5)
000924 e0a0      	LDI  R26,HIGH(0x5)
000925 07fa      	CPC  R31,R26
000926 f561      	BRNE _0xEF
                 ; 0000 01F3           led_20_off;led_19_off;led_18_off;led_17_off;led_16_off;led_15_off;led_14_off;led_13_off;led_12_off;led_11_off;
000927 91e0 0062 	LDS  R30,98
000929 7feb      	ANDI R30,0xFB
00092a 93e0 0062 	STS  98,R30
00092c 91e0 0062 	LDS  R30,98
00092e 7fee      	ANDI R30,0xFE
00092f 93e0 0062 	STS  98,R30
000931 91e0 0062 	LDS  R30,98
000933 7bef      	ANDI R30,0xBF
000934 93e0 0062 	STS  98,R30
000936 91e0 0062 	LDS  R30,98
000938 7fed      	ANDI R30,0xFD
000939 93e0 0062 	STS  98,R30
00093b 91e0 0062 	LDS  R30,98
00093d 7fe7      	ANDI R30,0XF7
00093e 93e0 0062 	STS  98,R30
000940 91e0 0062 	LDS  R30,98
000942 7def      	ANDI R30,0xDF
000943 93e0 0062 	STS  98,R30
000945 91e0 0062 	LDS  R30,98
000947 77ef      	ANDI R30,0x7F
000948 93e0 0062 	STS  98,R30
00094a 98d8      	CBI  0x1B,0
00094b 98d9      	CBI  0x1B,1
00094c 98db      	CBI  0x1B,3
                 ; 0000 01F4           led_10_off;led_09_off;led_08_off;led_07_off;led_06_off;led_05_on;led_04_on;led_03_off;led_02_off;led_01_off;br ...
00094d 98dc      	CBI  0x1B,4
00094e 98dd      	CBI  0x1B,5
00094f 98de      	CBI  0x1B,6
000950 98df      	CBI  0x1B,7
000951 98ae      	CBI  0x15,6
000952 c236      	RJMP _0x418
                 ; 0000 01F5                 case 6: {
                 _0xEF:
000953 30e6      	CPI  R30,LOW(0x6)
000954 e0a0      	LDI  R26,HIGH(0x6)
000955 07fa      	CPC  R31,R26
000956 f559      	BRNE _0x10A
                 ; 0000 01F6           led_20_off;led_19_off;led_18_off;led_17_off;led_16_off;led_15_off;led_14_off;led_13_off;led_12_off;led_11_off;
000957 91e0 0062 	LDS  R30,98
000959 7feb      	ANDI R30,0xFB
00095a 93e0 0062 	STS  98,R30
00095c 91e0 0062 	LDS  R30,98
00095e 7fee      	ANDI R30,0xFE
00095f 93e0 0062 	STS  98,R30
000961 91e0 0062 	LDS  R30,98
000963 7bef      	ANDI R30,0xBF
000964 93e0 0062 	STS  98,R30
000966 91e0 0062 	LDS  R30,98
000968 7fed      	ANDI R30,0xFD
000969 93e0 0062 	STS  98,R30
00096b 91e0 0062 	LDS  R30,98
00096d 7fe7      	ANDI R30,0XF7
00096e 93e0 0062 	STS  98,R30
000970 91e0 0062 	LDS  R30,98
000972 7def      	ANDI R30,0xDF
000973 93e0 0062 	STS  98,R30
000975 91e0 0062 	LDS  R30,98
000977 77ef      	ANDI R30,0x7F
000978 93e0 0062 	STS  98,R30
00097a 98d8      	CBI  0x1B,0
00097b 98d9      	CBI  0x1B,1
00097c 98db      	CBI  0x1B,3
                 ; 0000 01F7           led_10_off;led_09_off;led_08_off;led_07_off;led_06_on;led_05_on;led_04_on;led_03_off;led_02_off;led_01_off;bre ...
00097d 98dc      	CBI  0x1B,4
00097e 98dd      	CBI  0x1B,5
00097f 98de      	CBI  0x1B,6
000980 98df      	CBI  0x1B,7
000981 c206      	RJMP _0x419
                 ; 0000 01F8                 case 7: {
                 _0x10A:
000982 30e7      	CPI  R30,LOW(0x7)
000983 e0a0      	LDI  R26,HIGH(0x7)
000984 07fa      	CPC  R31,R26
000985 f551      	BRNE _0x125
                 ; 0000 01F9           led_20_off;led_19_off;led_18_off;led_17_off;led_16_off;led_15_off;led_14_off;led_13_off;led_12_off;led_11_off;
000986 91e0 0062 	LDS  R30,98
000988 7feb      	ANDI R30,0xFB
000989 93e0 0062 	STS  98,R30
00098b 91e0 0062 	LDS  R30,98
00098d 7fee      	ANDI R30,0xFE
00098e 93e0 0062 	STS  98,R30
000990 91e0 0062 	LDS  R30,98
000992 7bef      	ANDI R30,0xBF
000993 93e0 0062 	STS  98,R30
000995 91e0 0062 	LDS  R30,98
000997 7fed      	ANDI R30,0xFD
000998 93e0 0062 	STS  98,R30
00099a 91e0 0062 	LDS  R30,98
00099c 7fe7      	ANDI R30,0XF7
00099d 93e0 0062 	STS  98,R30
00099f 91e0 0062 	LDS  R30,98
0009a1 7def      	ANDI R30,0xDF
0009a2 93e0 0062 	STS  98,R30
0009a4 91e0 0062 	LDS  R30,98
0009a6 77ef      	ANDI R30,0x7F
0009a7 93e0 0062 	STS  98,R30
0009a9 98d8      	CBI  0x1B,0
0009aa 98d9      	CBI  0x1B,1
0009ab 98db      	CBI  0x1B,3
                 ; 0000 01FA           led_10_off;led_09_off;led_08_off;led_07_on;led_06_on;led_05_on;led_04_on;led_03_off;led_02_off;led_01_off;brea ...
0009ac 98dc      	CBI  0x1B,4
0009ad 98dd      	CBI  0x1B,5
0009ae 98de      	CBI  0x1B,6
0009af c1d7      	RJMP _0x41A
                 ; 0000 01FB                 case 8: {
                 _0x125:
0009b0 30e8      	CPI  R30,LOW(0x8)
0009b1 e0a0      	LDI  R26,HIGH(0x8)
0009b2 07fa      	CPC  R31,R26
0009b3 f549      	BRNE _0x140
                 ; 0000 01FC           led_20_off;led_19_off;led_18_off;led_17_off;led_16_off;led_15_off;led_14_off;led_13_off;led_12_off;led_11_off;
0009b4 91e0 0062 	LDS  R30,98
0009b6 7feb      	ANDI R30,0xFB
0009b7 93e0 0062 	STS  98,R30
0009b9 91e0 0062 	LDS  R30,98
0009bb 7fee      	ANDI R30,0xFE
0009bc 93e0 0062 	STS  98,R30
0009be 91e0 0062 	LDS  R30,98
0009c0 7bef      	ANDI R30,0xBF
0009c1 93e0 0062 	STS  98,R30
0009c3 91e0 0062 	LDS  R30,98
0009c5 7fed      	ANDI R30,0xFD
0009c6 93e0 0062 	STS  98,R30
0009c8 91e0 0062 	LDS  R30,98
0009ca 7fe7      	ANDI R30,0XF7
0009cb 93e0 0062 	STS  98,R30
0009cd 91e0 0062 	LDS  R30,98
0009cf 7def      	ANDI R30,0xDF
0009d0 93e0 0062 	STS  98,R30
0009d2 91e0 0062 	LDS  R30,98
0009d4 77ef      	ANDI R30,0x7F
0009d5 93e0 0062 	STS  98,R30
0009d7 98d8      	CBI  0x1B,0
0009d8 98d9      	CBI  0x1B,1
0009d9 98db      	CBI  0x1B,3
                 ; 0000 01FD           led_10_off;led_09_off;led_08_on;led_07_on;led_06_on;led_05_on;led_04_on;led_03_off;led_02_off;led_01_off;break ...
0009da 98dc      	CBI  0x1B,4
0009db 98dd      	CBI  0x1B,5
0009dc c1a9      	RJMP _0x41B
                 ; 0000 01FE                 case 9: {
                 _0x140:
0009dd 30e9      	CPI  R30,LOW(0x9)
0009de e0a0      	LDI  R26,HIGH(0x9)
0009df 07fa      	CPC  R31,R26
0009e0 f541      	BRNE _0x15B
                 ; 0000 01FF           led_20_off;led_19_off;led_18_off;led_17_off;led_16_off;led_15_off;led_14_off;led_13_off;led_12_off;led_11_off;
0009e1 91e0 0062 	LDS  R30,98
0009e3 7feb      	ANDI R30,0xFB
0009e4 93e0 0062 	STS  98,R30
0009e6 91e0 0062 	LDS  R30,98
0009e8 7fee      	ANDI R30,0xFE
0009e9 93e0 0062 	STS  98,R30
0009eb 91e0 0062 	LDS  R30,98
0009ed 7bef      	ANDI R30,0xBF
0009ee 93e0 0062 	STS  98,R30
0009f0 91e0 0062 	LDS  R30,98
0009f2 7fed      	ANDI R30,0xFD
0009f3 93e0 0062 	STS  98,R30
0009f5 91e0 0062 	LDS  R30,98
0009f7 7fe7      	ANDI R30,0XF7
0009f8 93e0 0062 	STS  98,R30
0009fa 91e0 0062 	LDS  R30,98
0009fc 7def      	ANDI R30,0xDF
0009fd 93e0 0062 	STS  98,R30
0009ff 91e0 0062 	LDS  R30,98
000a01 77ef      	ANDI R30,0x7F
000a02 93e0 0062 	STS  98,R30
000a04 98d8      	CBI  0x1B,0
000a05 98d9      	CBI  0x1B,1
000a06 98db      	CBI  0x1B,3
                 ; 0000 0200           led_10_off;led_09_on;led_08_on;led_07_on;led_06_on;led_05_on;led_04_on;led_03_off;led_02_off;led_01_off;break; ...
000a07 98dc      	CBI  0x1B,4
000a08 c17c      	RJMP _0x41C
                 ; 0000 0201                 case 10: {
                 _0x15B:
000a09 30ea      	CPI  R30,LOW(0xA)
000a0a e0a0      	LDI  R26,HIGH(0xA)
000a0b 07fa      	CPC  R31,R26
000a0c f539      	BRNE _0x176
                 ; 0000 0202           led_20_off;led_19_off;led_18_off;led_17_off;led_16_off;led_15_off;led_14_off;led_13_off;led_12_off;led_11_off;
000a0d 91e0 0062 	LDS  R30,98
000a0f 7feb      	ANDI R30,0xFB
000a10 93e0 0062 	STS  98,R30
000a12 91e0 0062 	LDS  R30,98
000a14 7fee      	ANDI R30,0xFE
000a15 93e0 0062 	STS  98,R30
000a17 91e0 0062 	LDS  R30,98
000a19 7bef      	ANDI R30,0xBF
000a1a 93e0 0062 	STS  98,R30
000a1c 91e0 0062 	LDS  R30,98
000a1e 7fed      	ANDI R30,0xFD
000a1f 93e0 0062 	STS  98,R30
000a21 91e0 0062 	LDS  R30,98
000a23 7fe7      	ANDI R30,0XF7
000a24 93e0 0062 	STS  98,R30
000a26 91e0 0062 	LDS  R30,98
000a28 7def      	ANDI R30,0xDF
000a29 93e0 0062 	STS  98,R30
000a2b 91e0 0062 	LDS  R30,98
000a2d 77ef      	ANDI R30,0x7F
000a2e 93e0 0062 	STS  98,R30
000a30 98d8      	CBI  0x1B,0
000a31 98d9      	CBI  0x1B,1
000a32 98db      	CBI  0x1B,3
                 ; 0000 0203           led_10_on;led_09_on;led_08_on;led_07_on;led_06_on;led_05_on;led_04_on;led_03_off;led_02_off;led_01_off;break;}
000a33 c150      	RJMP _0x41D
                 ; 0000 0204                 case 11: {
                 _0x176:
000a34 30eb      	CPI  R30,LOW(0xB)
000a35 e0a0      	LDI  R26,HIGH(0xB)
000a36 07fa      	CPC  R31,R26
000a37 f531      	BRNE _0x191
                 ; 0000 0205           led_20_off;led_19_off;led_18_off;led_17_off;led_16_off;led_15_off;led_14_off;led_13_off;led_12_off;led_11_on;
000a38 91e0 0062 	LDS  R30,98
000a3a 7feb      	ANDI R30,0xFB
000a3b 93e0 0062 	STS  98,R30
000a3d 91e0 0062 	LDS  R30,98
000a3f 7fee      	ANDI R30,0xFE
000a40 93e0 0062 	STS  98,R30
000a42 91e0 0062 	LDS  R30,98
000a44 7bef      	ANDI R30,0xBF
000a45 93e0 0062 	STS  98,R30
000a47 91e0 0062 	LDS  R30,98
000a49 7fed      	ANDI R30,0xFD
000a4a 93e0 0062 	STS  98,R30
000a4c 91e0 0062 	LDS  R30,98
000a4e 7fe7      	ANDI R30,0XF7
000a4f 93e0 0062 	STS  98,R30
000a51 91e0 0062 	LDS  R30,98
000a53 7def      	ANDI R30,0xDF
000a54 93e0 0062 	STS  98,R30
000a56 91e0 0062 	LDS  R30,98
000a58 77ef      	ANDI R30,0x7F
000a59 93e0 0062 	STS  98,R30
000a5b 98d8      	CBI  0x1B,0
000a5c 98d9      	CBI  0x1B,1
000a5d c125      	RJMP _0x41E
                 ; 0000 0206           led_10_on;led_09_on;led_08_on;led_07_on;led_06_on;led_05_on;led_04_on;led_03_off;led_02_off;led_01_off;break;}
                 ; 0000 0207                 case 12: {
                 _0x191:
000a5e 30ec      	CPI  R30,LOW(0xC)
000a5f e0a0      	LDI  R26,HIGH(0xC)
000a60 07fa      	CPC  R31,R26
000a61 f529      	BRNE _0x1AC
                 ; 0000 0208           led_20_off;led_19_off;led_18_off;led_17_off;led_16_off;led_15_off;led_14_off;led_13_off;led_12_on;led_11_on;
000a62 91e0 0062 	LDS  R30,98
000a64 7feb      	ANDI R30,0xFB
000a65 93e0 0062 	STS  98,R30
000a67 91e0 0062 	LDS  R30,98
000a69 7fee      	ANDI R30,0xFE
000a6a 93e0 0062 	STS  98,R30
000a6c 91e0 0062 	LDS  R30,98
000a6e 7bef      	ANDI R30,0xBF
000a6f 93e0 0062 	STS  98,R30
000a71 91e0 0062 	LDS  R30,98
000a73 7fed      	ANDI R30,0xFD
000a74 93e0 0062 	STS  98,R30
000a76 91e0 0062 	LDS  R30,98
000a78 7fe7      	ANDI R30,0XF7
000a79 93e0 0062 	STS  98,R30
000a7b 91e0 0062 	LDS  R30,98
000a7d 7def      	ANDI R30,0xDF
000a7e 93e0 0062 	STS  98,R30
000a80 91e0 0062 	LDS  R30,98
000a82 77ef      	ANDI R30,0x7F
000a83 93e0 0062 	STS  98,R30
000a85 98d8      	CBI  0x1B,0
000a86 c0fb      	RJMP _0x41F
                 ; 0000 0209           led_10_on;led_09_on;led_08_on;led_07_on;led_06_on;led_05_on;led_04_on;led_03_off;led_02_off;led_01_off;break;}
                 ; 0000 020A                 case 13: {
                 _0x1AC:
000a87 30ed      	CPI  R30,LOW(0xD)
000a88 e0a0      	LDI  R26,HIGH(0xD)
000a89 07fa      	CPC  R31,R26
000a8a f511      	BRNE _0x1C7
                 ; 0000 020B           led_20_off;led_19_off;led_18_off;led_17_off;led_16_off;led_15_off;led_14_off;led_13_on;led_12_on;led_11_on;
000a8b 91e0 0062 	LDS  R30,98
000a8d 7feb      	ANDI R30,0xFB
000a8e 93e0 0062 	STS  98,R30
000a90 91e0 0062 	LDS  R30,98
000a92 7fee      	ANDI R30,0xFE
000a93 93e0 0062 	STS  98,R30
000a95 91e0 0062 	LDS  R30,98
000a97 7bef      	ANDI R30,0xBF
000a98 93e0 0062 	STS  98,R30
000a9a 91e0 0062 	LDS  R30,98
000a9c 7fed      	ANDI R30,0xFD
000a9d 93e0 0062 	STS  98,R30
000a9f 91e0 0062 	LDS  R30,98
000aa1 7fe7      	ANDI R30,0XF7
000aa2 93e0 0062 	STS  98,R30
000aa4 91e0 0062 	LDS  R30,98
000aa6 7def      	ANDI R30,0xDF
000aa7 93e0 0062 	STS  98,R30
000aa9 91e0 0062 	LDS  R30,98
000aab 77ef      	ANDI R30,0x7F
000aac c0d2      	RJMP _0x420
                 ; 0000 020C           led_10_on;led_09_on;led_08_on;led_07_on;led_06_on;led_05_on;led_04_on;led_03_off;led_02_off;led_01_off;break;}
                 ; 0000 020D                 case 14: {
                 _0x1C7:
000aad 30ee      	CPI  R30,LOW(0xE)
000aae e0a0      	LDI  R26,HIGH(0xE)
000aaf 07fa      	CPC  R31,R26
000ab0 f4e9      	BRNE _0x1E2
                 ; 0000 020E           led_20_off;led_19_off;led_18_off;led_17_off;led_16_off;led_15_off;led_14_on;led_13_on;led_12_on;led_11_on;
000ab1 91e0 0062 	LDS  R30,98
000ab3 7feb      	ANDI R30,0xFB
000ab4 93e0 0062 	STS  98,R30
000ab6 91e0 0062 	LDS  R30,98
000ab8 7fee      	ANDI R30,0xFE
000ab9 93e0 0062 	STS  98,R30
000abb 91e0 0062 	LDS  R30,98
000abd 7bef      	ANDI R30,0xBF
000abe 93e0 0062 	STS  98,R30
000ac0 91e0 0062 	LDS  R30,98
000ac2 7fed      	ANDI R30,0xFD
000ac3 93e0 0062 	STS  98,R30
000ac5 91e0 0062 	LDS  R30,98
000ac7 7fe7      	ANDI R30,0XF7
000ac8 93e0 0062 	STS  98,R30
000aca 91e0 0062 	LDS  R30,98
000acc 7def      	ANDI R30,0xDF
000acd c0ac      	RJMP _0x421
                 ; 0000 020F           led_10_on;led_09_on;led_08_on;led_07_on;led_06_on;led_05_on;led_04_on;led_03_off;led_02_off;led_01_off;break;}
                 ; 0000 0210                 case 15: {
                 _0x1E2:
000ace 30ef      	CPI  R30,LOW(0xF)
000acf e0a0      	LDI  R26,HIGH(0xF)
000ad0 07fa      	CPC  R31,R26
000ad1 f4c1      	BRNE _0x1FD
                 ; 0000 0211           led_20_off;led_19_off;led_18_off;led_17_off;led_16_off;led_15_on;led_14_on;led_13_on;led_12_on;led_11_on;
000ad2 91e0 0062 	LDS  R30,98
000ad4 7feb      	ANDI R30,0xFB
000ad5 93e0 0062 	STS  98,R30
000ad7 91e0 0062 	LDS  R30,98
000ad9 7fee      	ANDI R30,0xFE
000ada 93e0 0062 	STS  98,R30
000adc 91e0 0062 	LDS  R30,98
000ade 7bef      	ANDI R30,0xBF
000adf 93e0 0062 	STS  98,R30
000ae1 91e0 0062 	LDS  R30,98
000ae3 7fed      	ANDI R30,0xFD
000ae4 93e0 0062 	STS  98,R30
000ae6 91e0 0062 	LDS  R30,98
000ae8 7fe7      	ANDI R30,0XF7
000ae9 c08b      	RJMP _0x422
                 ; 0000 0212           led_10_on;led_09_on;led_08_on;led_07_on;led_06_on;led_05_on;led_04_on;led_03_off;led_02_off;led_01_off;break;}
                 ; 0000 0213                 case 16: {
                 _0x1FD:
000aea 31e0      	CPI  R30,LOW(0x10)
000aeb e0a0      	LDI  R26,HIGH(0x10)
000aec 07fa      	CPC  R31,R26
000aed f499      	BRNE _0x218
                 ; 0000 0214           led_20_off;led_19_off;led_18_off;led_17_off;led_16_on;led_15_on;led_14_on;led_13_on;led_12_on;led_11_on;
000aee 91e0 0062 	LDS  R30,98
000af0 7feb      	ANDI R30,0xFB
000af1 93e0 0062 	STS  98,R30
000af3 91e0 0062 	LDS  R30,98
000af5 7fee      	ANDI R30,0xFE
000af6 93e0 0062 	STS  98,R30
000af8 91e0 0062 	LDS  R30,98
000afa 7bef      	ANDI R30,0xBF
000afb 93e0 0062 	STS  98,R30
000afd 91e0 0062 	LDS  R30,98
000aff 7fed      	ANDI R30,0xFD
000b00 c06f      	RJMP _0x423
                 ; 0000 0215           led_10_on;led_09_on;led_08_on;led_07_on;led_06_on;led_05_on;led_04_on;led_03_off;led_02_off;led_01_off;break;}
                 ; 0000 0216                 case 17: {
                 _0x218:
000b01 31e1      	CPI  R30,LOW(0x11)
000b02 e0a0      	LDI  R26,HIGH(0x11)
000b03 07fa      	CPC  R31,R26
000b04 f471      	BRNE _0x233
                 ; 0000 0217           led_20_off;led_19_off;led_18_off;led_17_on;led_16_on;led_15_on;led_14_on;led_13_on;led_12_on;led_11_on;
000b05 91e0 0062 	LDS  R30,98
000b07 7feb      	ANDI R30,0xFB
000b08 93e0 0062 	STS  98,R30
000b0a 91e0 0062 	LDS  R30,98
000b0c 7fee      	ANDI R30,0xFE
000b0d 93e0 0062 	STS  98,R30
000b0f 91e0 0062 	LDS  R30,98
000b11 7bef      	ANDI R30,0xBF
000b12 c058      	RJMP _0x424
                 ; 0000 0218           led_10_on;led_09_on;led_08_on;led_07_on;led_06_on;led_05_on;led_04_on;led_03_off;led_02_off;led_01_off;break;}
                 ; 0000 0219                 case 18: {
                 _0x233:
000b13 31e2      	CPI  R30,LOW(0x12)
000b14 e0a0      	LDI  R26,HIGH(0x12)
000b15 07fa      	CPC  R31,R26
000b16 f449      	BRNE _0x24E
                 ; 0000 021A           led_20_off;led_19_off;led_18_on;led_17_on;led_16_on;led_15_on;led_14_on;led_13_on;led_12_on;led_11_on;
000b17 91e0 0062 	LDS  R30,98
000b19 7feb      	ANDI R30,0xFB
000b1a 93e0 0062 	STS  98,R30
000b1c 91e0 0062 	LDS  R30,98
000b1e 7fee      	ANDI R30,0xFE
000b1f c046      	RJMP _0x425
                 ; 0000 021B           led_10_on;led_09_on;led_08_on;led_07_on;led_06_on;led_05_on;led_04_on;led_03_off;led_02_off;led_01_off;break;}
                 ; 0000 021C                 case 19: {
                 _0x24E:
000b20 31e3      	CPI  R30,LOW(0x13)
000b21 e0a0      	LDI  R26,HIGH(0x13)
000b22 07fa      	CPC  R31,R26
000b23 f421      	BRNE _0x269
                 ; 0000 021D           led_20_off;led_19_on;led_18_on;led_17_on;led_16_on;led_15_on;led_14_on;led_13_on;led_12_on;led_11_on;
000b24 91e0 0062 	LDS  R30,98
000b26 7feb      	ANDI R30,0xFB
000b27 c039      	RJMP _0x426
                 ; 0000 021E           led_10_on;led_09_on;led_08_on;led_07_on;led_06_on;led_05_on;led_04_on;led_03_off;led_02_off;led_01_off;break;}
                 ; 0000 021F                 case 20: {
                 _0x269:
000b28 31e4      	CPI  R30,LOW(0x14)
000b29 e0a0      	LDI  R26,HIGH(0x14)
000b2a 07fa      	CPC  R31,R26
000b2b f191      	BREQ _0x427
                 ; 0000 0220           led_20_on;led_19_on;led_18_on;led_17_on;led_16_on;led_15_on;led_14_on;led_13_on;led_12_on;led_11_on;
                 ; 0000 0221           led_10_on;led_09_on;led_08_on;led_07_on;led_06_on;led_05_on;led_04_on;led_03_off;led_02_off;led_01_off;break;}
                 ; 0000 0222                 case 30: {
000b2c 31ee      	CPI  R30,LOW(0x1E)
000b2d e0a0      	LDI  R26,HIGH(0x1E)
000b2e 07fa      	CPC  R31,R26
000b2f f571      	BRNE _0x2BA
                 ; 0000 0223           led_20_off;led_19_off;led_18_off;led_17_off;led_16_off;led_15_off;led_14_off;led_13_off;led_12_off;led_11_off;
000b30 91e0 0062 	LDS  R30,98
000b32 7feb      	ANDI R30,0xFB
000b33 93e0 0062 	STS  98,R30
000b35 91e0 0062 	LDS  R30,98
000b37 7fee      	ANDI R30,0xFE
000b38 93e0 0062 	STS  98,R30
000b3a 91e0 0062 	LDS  R30,98
000b3c 7bef      	ANDI R30,0xBF
000b3d 93e0 0062 	STS  98,R30
000b3f 91e0 0062 	LDS  R30,98
000b41 7fed      	ANDI R30,0xFD
000b42 93e0 0062 	STS  98,R30
000b44 91e0 0062 	LDS  R30,98
000b46 7fe7      	ANDI R30,0XF7
000b47 93e0 0062 	STS  98,R30
000b49 91e0 0062 	LDS  R30,98
000b4b 7def      	ANDI R30,0xDF
000b4c 93e0 0062 	STS  98,R30
000b4e 91e0 0062 	LDS  R30,98
000b50 77ef      	ANDI R30,0x7F
000b51 93e0 0062 	STS  98,R30
000b53 98d8      	CBI  0x1B,0
000b54 98d9      	CBI  0x1B,1
000b55 98db      	CBI  0x1B,3
                 ; 0000 0224           led_10_off;led_09_off;led_08_off;led_07_off;led_06_off;led_05_off;led_04_off;led_03_off;led_02_off;led_01_off; ...
000b56 98dc      	CBI  0x1B,4
000b57 98dd      	CBI  0x1B,5
000b58 98de      	CBI  0x1B,6
000b59 98df      	CBI  0x1B,7
000b5a 98ae      	CBI  0x15,6
000b5b 98af      	CBI  0x15,7
000b5c 98ac      	CBI  0x15,4
000b5d c02d      	RJMP _0x428
                 ; 0000 0225                 default: {
                 _0x2BA:
                 ; 0000 0226           led_20_on;led_19_on;led_18_on;led_17_on;led_16_on;led_15_on;led_14_on;led_13_on;led_12_on;led_11_on;
                 _0x427:
000b5e 91e0 0062 	LDS  R30,98
000b60 60e4      	ORI  R30,4
                 _0x426:
000b61 93e0 0062 	STS  98,R30
000b63 91e0 0062 	LDS  R30,98
000b65 60e1      	ORI  R30,1
                 _0x425:
000b66 93e0 0062 	STS  98,R30
000b68 91e0 0062 	LDS  R30,98
000b6a 64e0      	ORI  R30,0x40
                 _0x424:
000b6b 93e0 0062 	STS  98,R30
000b6d 91e0 0062 	LDS  R30,98
000b6f 60e2      	ORI  R30,2
                 _0x423:
000b70 93e0 0062 	STS  98,R30
000b72 91e0 0062 	LDS  R30,98
000b74 60e8      	ORI  R30,8
                 _0x422:
000b75 93e0 0062 	STS  98,R30
000b77 91e0 0062 	LDS  R30,98
000b79 62e0      	ORI  R30,0x20
                 _0x421:
000b7a 93e0 0062 	STS  98,R30
000b7c 91e0 0062 	LDS  R30,98
000b7e 68e0      	ORI  R30,0x80
                 _0x420:
000b7f 93e0 0062 	STS  98,R30
000b81 9ad8      	SBI  0x1B,0
                 _0x41F:
000b82 9ad9      	SBI  0x1B,1
                 _0x41E:
000b83 9adb      	SBI  0x1B,3
                 ; 0000 0227           led_10_on;led_09_on;led_08_on;led_07_on;led_06_on;led_05_on;led_04_on;led_03_off;led_02_off;led_01_off;break;}
                 _0x41D:
000b84 9adc      	SBI  0x1B,4
                 _0x41C:
000b85 9add      	SBI  0x1B,5
                 _0x41B:
000b86 9ade      	SBI  0x1B,6
                 _0x41A:
000b87 9adf      	SBI  0x1B,7
                 _0x419:
000b88 9aae      	SBI  0x15,6
                 _0x418:
000b89 9aaf      	SBI  0x15,7
                 _0x417:
000b8a 9aac      	SBI  0x15,4
                 _0x428:
000b8b 98ab      	CBI  0x15,3
000b8c 98aa      	CBI  0x15,2
000b8d 98a9      	CBI  0x15,1
                 ; 0000 0228               }
                 _0x67:
                 ; 0000 0229         }
000b8e 9621      	ADIW R28,1
000b8f 9508      	RET
                 ; .FEND
                 ;
                 ;
                 ;interrupt [TIM3_OVF] void timer3_ovf_isr(void)
                 ; 0000 022D {
                 _timer3_ovf_isr:
                 ; .FSTART _timer3_ovf_isr
000b90 93aa      	ST   -Y,R26
000b91 93ba      	ST   -Y,R27
000b92 93ea      	ST   -Y,R30
000b93 93fa      	ST   -Y,R31
000b94 b7ef      	IN   R30,SREG
000b95 93ea      	ST   -Y,R30
                 ; 0000 022E // Reinitialize Timer 3 value
                 ; 0000 022F //if(AvTimer%2==0)testing_blink_on;
                 ; 0000 0230 //else testing_blink_off;
                 ; 0000 0231 //#asm(" cli")
                 ; 0000 0232 AvTimer_on;
000b96 e0e0      	LDI  R30,LOW(0)
000b97 93e0 008b 	STS  139,R30
000b99 e0e4      	LDI  R30,LOW(4)
000b9a 93e0 008a 	STS  138,R30
000b9c e8e1      	LDI  R30,LOW(129)
000b9d 93e0 0089 	STS  137,R30
000b9f e0eb      	LDI  R30,LOW(11)
000ba0 93e0 0088 	STS  136,R30
000ba2 e0e4      	LDI  R30,LOW(4)
000ba3 93e0 007d 	STS  125,R30
                 ; 0000 0233           // βκλώχΰεμ ςΰιμεπ
                 ; 0000 0234 // Place your code here
                 ; 0000 0235 //SendSKZsave_req=1;   //ύςξς τλΰγ οξκΰηϋβΰες, χςξ νσζνξ ξαπΰςθςόρ κ ΑΟΡ θ ρξυπΰνθςό ηνΰχενθε ΡΚΗ (β οπξφενςΰυ)
                 ; 0000 0236 AvTimer++;                    //νΰπΰωθβΰεμ ηνΰχενθε ςΰιμεπΰ
000ba5 eaa1      	LDI  R26,LOW(_AvTimer)
000ba6 e0b5      	LDI  R27,HIGH(_AvTimer)
000ba7 91ed      	LD   R30,X+
000ba8 91fd      	LD   R31,X+
000ba9 9631      	ADIW R30,1
000baa 93fe      	ST   -X,R31
000bab 93ee      	ST   -X,R30
                 ; 0000 0237 //#asm(" sei")
                 ; 0000 0238 }
000bac 91e9      	LD   R30,Y+
000bad bfef      	OUT  SREG,R30
000bae 91f9      	LD   R31,Y+
000baf 91e9      	LD   R30,Y+
000bb0 91b9      	LD   R27,Y+
000bb1 91a9      	LD   R26,Y+
000bb2 9518      	RETI
                 ; .FEND
                 ;
                 ;interrupt [TIM2_OVF] void timer2_ovf_isr(void)
                 ; 0000 023B {
                 _timer2_ovf_isr:
                 ; .FSTART _timer2_ovf_isr
000bb3 93aa      	ST   -Y,R26
000bb4 93ba      	ST   -Y,R27
000bb5 93ea      	ST   -Y,R30
000bb6 93fa      	ST   -Y,R31
000bb7 b7ef      	IN   R30,SREG
000bb8 93ea      	ST   -Y,R30
                 ; 0000 023C TCCR2=0x05;
000bb9 e0e5      	LDI  R30,LOW(5)
000bba bde5      	OUT  0x25,R30
                 ; 0000 023D TCNT2=0x00;
000bbb e0e0      	LDI  R30,LOW(0)
000bbc bde4      	OUT  0x24,R30
                 ; 0000 023E OCR2=0x00;
000bbd bde3      	OUT  0x23,R30
                 ; 0000 023F TIMSK=TIMSK|0x40;
000bbe b7e7      	IN   R30,0x37
000bbf 64e0      	ORI  R30,0x40
000bc0 bfe7      	OUT  0x37,R30
                 ; 0000 0240 
                 ; 0000 0241 BlinkCounter_Calibration++;
000bc1 eaaf      	LDI  R26,LOW(_BlinkCounter_Calibration)
000bc2 e0b5      	LDI  R27,HIGH(_BlinkCounter_Calibration)
000bc3 91ed      	LD   R30,X+
000bc4 91fd      	LD   R31,X+
000bc5 9631      	ADIW R30,1
000bc6 93fe      	ST   -X,R31
000bc7 93ee      	ST   -X,R30
                 ; 0000 0242 if(BlinkCounter_Calibration==17){BlinkCounter_Calibration=0;}
000bc8 91a0 05af 	LDS  R26,_BlinkCounter_Calibration
000bca 91b0 05b0 	LDS  R27,_BlinkCounter_Calibration+1
000bcc 9751      	SBIW R26,17
000bcd f429      	BRNE _0x2D5
000bce e0e0      	LDI  R30,LOW(0)
000bcf 93e0 05af 	STS  _BlinkCounter_Calibration,R30
000bd1 93e0 05b0 	STS  _BlinkCounter_Calibration+1,R30
                 ; 0000 0243 led_warning_on&warning_flag;
                 _0x2D5:
000bd3 91a0 0062 	LDS  R26,98
000bd5 91e0 05b3 	LDS  R30,_warning_flag
000bd7 71e0      	ANDI R30,LOW(0x10)
000bd8 2bea      	OR   R30,R26
000bd9 93e0 0062 	STS  98,R30
                 ; 0000 0244 if((BlinkCounter_Calibration>=9)&&(warning_flag==1)&&(blink_flag==1))led_warning_on;
000bdb 91a0 05af 	LDS  R26,_BlinkCounter_Calibration
000bdd 91b0 05b0 	LDS  R27,_BlinkCounter_Calibration+1
000bdf 9719      	SBIW R26,9
000be0 f060      	BRLO _0x2D7
000be1 91a0 05b3 	LDS  R26,_warning_flag
000be3 91b0 05b4 	LDS  R27,_warning_flag+1
000be5 9711      	SBIW R26,1
000be6 f431      	BRNE _0x2D7
000be7 91a0 05b9 	LDS  R26,_blink_flag
000be9 91b0 05ba 	LDS  R27,_blink_flag+1
000beb 9711      	SBIW R26,1
000bec f009      	BREQ _0x2D8
                 _0x2D7:
000bed c005      	RJMP _0x2D6
                 _0x2D8:
000bee 91e0 0062 	LDS  R30,98
000bf0 61e0      	ORI  R30,0x10
000bf1 93e0 0062 	STS  98,R30
                 ; 0000 0245 if((BlinkCounter_Calibration>=9)&&(red==1))led_calibration_on;
                 _0x2D6:
000bf3 91a0 05af 	LDS  R26,_BlinkCounter_Calibration
000bf5 91b0 05b0 	LDS  R27,_BlinkCounter_Calibration+1
000bf7 9719      	SBIW R26,9
000bf8 f030      	BRLO _0x2DA
000bf9 91a0 05bb 	LDS  R26,_red
000bfb 91b0 05bc 	LDS  R27,_red+1
000bfd 9711      	SBIW R26,1
000bfe f009      	BREQ _0x2DB
                 _0x2DA:
000bff c001      	RJMP _0x2D9
                 _0x2DB:
000c00 9ada      	SBI  0x1B,2
                 ; 0000 0246 if((BlinkCounter_Calibration<9)&&(red==1))led_calibration_off;
                 _0x2D9:
000c01 91a0 05af 	LDS  R26,_BlinkCounter_Calibration
000c03 91b0 05b0 	LDS  R27,_BlinkCounter_Calibration+1
000c05 9719      	SBIW R26,9
000c06 f430      	BRSH _0x2DF
000c07 91a0 05bb 	LDS  R26,_red
000c09 91b0 05bc 	LDS  R27,_red+1
000c0b 9711      	SBIW R26,1
000c0c f009      	BREQ _0x2E0
                 _0x2DF:
000c0d c001      	RJMP _0x2DE
                 _0x2E0:
000c0e 98da      	CBI  0x1B,2
                 ; 0000 0247 if((BlinkCounter_Calibration<9)&&(warning_flag==1)&&(blink_flag==1))led_warning_off;
                 _0x2DE:
000c0f 91a0 05af 	LDS  R26,_BlinkCounter_Calibration
000c11 91b0 05b0 	LDS  R27,_BlinkCounter_Calibration+1
000c13 9719      	SBIW R26,9
000c14 f460      	BRSH _0x2E4
000c15 91a0 05b3 	LDS  R26,_warning_flag
000c17 91b0 05b4 	LDS  R27,_warning_flag+1
000c19 9711      	SBIW R26,1
000c1a f431      	BRNE _0x2E4
000c1b 91a0 05b9 	LDS  R26,_blink_flag
000c1d 91b0 05ba 	LDS  R27,_blink_flag+1
000c1f 9711      	SBIW R26,1
000c20 f009      	BREQ _0x2E5
                 _0x2E4:
000c21 c005      	RJMP _0x2E3
                 _0x2E5:
000c22 91e0 0062 	LDS  R30,98
000c24 7eef      	ANDI R30,0xEF
000c25 93e0 0062 	STS  98,R30
                 ; 0000 0248 
                 ; 0000 0249 //#asm("wdr");
                 ; 0000 024A 
                 ; 0000 024B }
                 _0x2E3:
000c27 91e9      	LD   R30,Y+
000c28 bfef      	OUT  SREG,R30
000c29 91f9      	LD   R31,Y+
000c2a 91e9      	LD   R30,Y+
000c2b 91b9      	LD   R27,Y+
000c2c 91a9      	LD   R26,Y+
000c2d 9518      	RETI
                 ; .FEND
                 ;void blink_on()
                 ; 0000 024D {
                 _blink_on:
                 ; .FSTART _blink_on
                 ; 0000 024E TCCR2=0x05;
000c2e e0e5      	LDI  R30,LOW(5)
000c2f bde5      	OUT  0x25,R30
                 ; 0000 024F TCNT2=0x00;
000c30 e0e0      	LDI  R30,LOW(0)
000c31 bde4      	OUT  0x24,R30
                 ; 0000 0250 OCR2=0x00;
000c32 bde3      	OUT  0x23,R30
                 ; 0000 0251 TIMSK=TIMSK|0x40;}
000c33 b7e7      	IN   R30,0x37
000c34 64e0      	ORI  R30,0x40
000c35 c005      	RJMP _0x20A0005
                 ; .FEND
                 ;
                 ;void blink_off()
                 ; 0000 0254 {
                 _blink_off:
                 ; .FSTART _blink_off
                 ; 0000 0255 TCCR2=0x00;
000c36 e0e0      	LDI  R30,LOW(0)
000c37 bde5      	OUT  0x25,R30
                 ; 0000 0256 TCNT2=0x00;
000c38 bde4      	OUT  0x24,R30
                 ; 0000 0257 OCR2=0x00;
000c39 bde3      	OUT  0x23,R30
                 ; 0000 0258 TIMSK=0x01;}
000c3a e0e1      	LDI  R30,LOW(1)
                 _0x20A0005:
000c3b bfe7      	OUT  0x37,R30
000c3c 9508      	RET
                 ; .FEND
                 ;/*
                 ;void blink_display(int value) //ξςξαπΰζενθε θντξπμΰφθθ ξ ρξδεπζθμξμ αστεπΰ μΰρςεπΰ
                 ;        {
                 ;        char i;
                 ;        led_green_on;
                 ;        led_red_on;
                 ;        delay_ms(1000);
                 ;        led_green_off;
                 ;        led_red_off;
                 ;        delay_ms(1000);
                 ;
                 ;        for(i=1;i<(value/10);i++)
                 ;        {led_green_on;
                 ;        delay_ms(200);
                 ;        led_green_off;
                 ;        delay_ms(200);}
                 ;        led_green_on;
                 ;        led_red_on;
                 ;        delay_ms(600);
                 ;        led_green_off;
                 ;        led_red_off;
                 ;        delay_ms(600);
                 ;        } */
                 ;
                 ;//-------------------------------------------
                 ;void send_skz()
                 ; 0000 0273 {crc_master=0xFFFF;
                 ; 0000 0274 mov_buf_master(0x01);
                 ; 0000 0275 mov_buf_master(0x0c);
                 ; 0000 0276 mov_buf_master(EEPROM_read(eeAddressSKZ1H));     //τσνκφθ ξςοπΰβλες ρξυπΰνεννϋε β εεοπξμ ηνΰχενθ ςξχεκ ΡΚΗ1 θ ΡΚΗ2
                 ; 0000 0277 mov_buf_master(EEPROM_read(eeAddressSKZ1L));     //ύςξ ορεβδξ μξδαΰρ τσνκφθ
                 ; 0000 0278 mov_buf_master(EEPROM_read(eeAddressSKZ2H));
                 ; 0000 0279 mov_buf_master(EEPROM_read(eeAddressSKZ2L));
                 ; 0000 027A crc_end_master();}
                 ;
                 ;/*void req_recieve_skz_array()
                 ;{unsigned int m;
                 ;crc_master=0xFFFF;
                 ;mov_buf_master(0x01);
                 ;for(m=2;m<79;m++)mov_buf_master(0xcc);
                 ;crc_end_master();}   */
                 ;
                 ;//void blink_intro()
                 ;//{
                 ;//led_20_on;led_19_on;led_18_on;led_17_on;led_16_on;led_15_on;led_14_on;led_13_on;led_12_on;led_11_on;led_10_on;led_09_o ...
                 ;//led_20_off;led_19_off;led_18_off;led_17_off;led_16_off;led_15_off;led_14_off;led_13_off;led_12_off;led_11_off;led_10_o ...
                 ;//}
                 ;void save_skz_arrays(unsigned int skz1or2)//δΰννΰ τσνκφθ οπξθηβξδθς ρϊεμ ηνΰχενθι μΰρρθβΰ Config.SKZ_1 u Config.SKZ_2
                 ; 0000 0289 {unsigned int m;                          // ΰ ςΰκζε ρπΰησ ρξυπΰνες εγξ β οΰμςθ eeprom ΑΚΘ
                 _save_skz_arrays:
                 ; .FSTART _save_skz_arrays
                 ; 0000 028A unsigned int val1, val2,addrval;
                 ; 0000 028B 
                 ; 0000 028C  ProcessingEEPROM=1;
000c3d 93ba      	ST   -Y,R27
000c3e 93aa      	ST   -Y,R26
000c3f 9722      	SBIW R28,2
000c40 940e 1a73 	CALL __SAVELOCR6
                 ;	skz1or2 -> Y+8
                 ;	m -> R16,R17
                 ;	val1 -> R18,R19
                 ;	val2 -> R20,R21
                 ;	addrval -> Y+6
000c42 9468      	SET
000c43 f825      	BLD  R2,5
                 ; 0000 028D  led_warning_off;
000c44 91e0 0062 	LDS  R30,98
000c46 7eef      	ANDI R30,0xEF
000c47 93e0 0062 	STS  98,R30
                 ; 0000 028E led_calibration_on;
000c49 9ada      	SBI  0x1B,2
                 ; 0000 028F blink_off();
000c4a dfeb      	RCALL _blink_off
                 ; 0000 0290 reg91_answer=(object_state|(!BPS_absent)<<5)|(red<<4)|((ProcessingEEPROM)<<3)|((red|ProcessingEEPROM)<<2)|((warning_flag ...
000c4b 91e0 0506 	LDS  R30,_BPS_absent
000c4d 91f0 0507 	LDS  R31,_BPS_absent+1
000c4f 940e 1a2d 	CALL __LNEGW1
000c51 95e2      	SWAP R30
000c52 7fe0      	ANDI R30,0xF0
000c53 0fee      	LSL  R30
000c54 91a0 058d 	LDS  R26,_object_state
000c56 2bea      	OR   R30,R26
000c57 2fae      	MOV  R26,R30
000c58 91e0 05bb 	LDS  R30,_red
000c5a 95e2      	SWAP R30
000c5b 7fe0      	ANDI R30,0xF0
000c5c 2bea      	OR   R30,R26
000c5d 2e0e      	MOV  R0,R30
000c5e e0a0      	LDI  R26,0
000c5f fc25      	SBRC R2,5
000c60 e0a1      	LDI  R26,1
000c61 2fea      	MOV  R30,R26
000c62 0fee      	LSL  R30
000c63 0fee      	LSL  R30
000c64 0fee      	LSL  R30
000c65 2a0e      	OR   R0,R30
000c66 e0e0      	LDI  R30,0
000c67 fc25      	SBRC R2,5
000c68 e0e1      	LDI  R30,1
000c69 91a0 05bb 	LDS  R26,_red
000c6b 2bea      	OR   R30,R26
000c6c 0fee      	LSL  R30
000c6d 0fee      	LSL  R30
000c6e 2a0e      	OR   R0,R30
000c6f 91e0 05b9 	LDS  R30,_blink_flag
000c71 91f0 05ba 	LDS  R31,_blink_flag+1
000c73 940e 1a2d 	CALL __LNEGW1
000c75 0fee      	LSL  R30
000c76 91a0 05b3 	LDS  R26,_warning_flag
000c78 23ea      	AND  R30,R26
000c79 2a0e      	OR   R0,R30
000c7a 91e0 05b9 	LDS  R30,_blink_flag
000c7c 91f0 05ba 	LDS  R31,_blink_flag+1
000c7e 940e 1a2d 	CALL __LNEGW1
000c80 23ea      	AND  R30,R26
000c81 91a0 05b9 	LDS  R26,_blink_flag
000c83 2bea      	OR   R30,R26
000c84 29e0      	OR   R30,R0
000c85 93e0 059a 	STS  _reg91_answer,R30
                 ; 0000 0291  delay_ms(3200);
000c87 e8a0      	LDI  R26,LOW(3200)
000c88 e0bc      	LDI  R27,HIGH(3200)
000c89 940e 1844 	CALL _delay_ms
                 ; 0000 0292 
                 ; 0000 0293 if(skz1or2==1){val1=0;val2=19;addrval=0x20;}        //ΰδπερΰ addrval οξδξαπΰνϋ θρυξδ θη ΰδπερξβ κξμΰνδ μξδαΰρ δλ χςενθ ...
000c8b 85a8      	LDD  R26,Y+8
000c8c 85b9      	LDD  R27,Y+8+1
000c8d 9711      	SBIW R26,1
000c8e f441      	BRNE _0x2E8
                +
000c8f e020     +LDI R18 , LOW ( 0 )
000c90 e030     +LDI R19 , HIGH ( 0 )
                 	__GETWRN 18,19,0
                +
000c91 e143     +LDI R20 , LOW ( 19 )
000c92 e050     +LDI R21 , HIGH ( 19 )
                 	__GETWRN 20,21,19
000c93 e2e0      	LDI  R30,LOW(32)
000c94 e0f0      	LDI  R31,HIGH(32)
000c95 83ee      	STD  Y+6,R30
000c96 83ff      	STD  Y+6+1,R31
                 ; 0000 0294 if(skz1or2==0){val1=19;val2=38;addrval=0x2D;}
                 _0x2E8:
000c97 85e8      	LDD  R30,Y+8
000c98 85f9      	LDD  R31,Y+8+1
000c99 9730      	SBIW R30,0
000c9a f441      	BRNE _0x2E9
                +
000c9b e123     +LDI R18 , LOW ( 19 )
000c9c e030     +LDI R19 , HIGH ( 19 )
                 	__GETWRN 18,19,19
                +
000c9d e246     +LDI R20 , LOW ( 38 )
000c9e e050     +LDI R21 , HIGH ( 38 )
                 	__GETWRN 20,21,38
000c9f e2ed      	LDI  R30,LOW(45)
000ca0 e0f0      	LDI  R31,HIGH(45)
000ca1 83ee      	STD  Y+6,R30
000ca2 83ff      	STD  Y+6+1,R31
                 ; 0000 0295 for (m=val1;m<val2;m++){
                 _0x2E9:
000ca3 0189      	MOVW R16,R18
                 _0x2EB:
                +
000ca4 1704     +CP R16 , R20
000ca5 0715     +CPC R17 , R21
                 	__CPWRR 16,17,20,21
000ca6 f008      	BRLO PC+2
000ca7 c086      	RJMP _0x2EC
                 ; 0000 0296 
                 ; 0000 0297 //led_red_on;
                 ; 0000 0298 /*if(skz1or2==1)led_red_on;
                 ; 0000 0299 else {led_red_off;
                 ; 0000 029A      if(!warning_flag)led_green_off;
                 ; 0000 029B      else led_green_on;}*/
                 ; 0000 029C rx_c_master=0;rx_m_master=0;rx_wr_index_master=0;rx_counter_master=0;
000ca8 94e8      	CLT
000ca9 f822      	BLD  R2,2
000caa f821      	BLD  R2,1
000cab e0e0      	LDI  R30,LOW(0)
000cac 93e0 0595 	STS  _rx_wr_index_master,R30
000cae 93e0 0596 	STS  _rx_counter_master,R30
                 ; 0000 029D rx_buffer_master[0]=0;
000cb0 93e0 050a 	STS  _rx_buffer_master,R30
                 ; 0000 029E rx_buffer_master[1]=0;
                +
000cb2 93e0 050b+STS _rx_buffer_master + ( 1 ) , R30
                 	__PUTB1MN _rx_buffer_master,1
                 ; 0000 029F rx_buffer_master[2]=0;
                +
000cb4 93e0 050c+STS _rx_buffer_master + ( 2 ) , R30
                 	__PUTB1MN _rx_buffer_master,2
                 ; 0000 02A0 rx_buffer_master[3]=0;
                +
000cb6 93e0 050d+STS _rx_buffer_master + ( 3 ) , R30
                 	__PUTB1MN _rx_buffer_master,3
                 ; 0000 02A1 rx_buffer_master[4]=0;
                +
000cb8 93e0 050e+STS _rx_buffer_master + ( 4 ) , R30
                 	__PUTB1MN _rx_buffer_master,4
                 ; 0000 02A2 rx_buffer_master[5]=0;
                +
000cba 93e0 050f+STS _rx_buffer_master + ( 5 ) , R30
                 	__PUTB1MN _rx_buffer_master,5
                 ; 0000 02A3 rx_buffer_master[6]=0;
                +
000cbc 93e0 0510+STS _rx_buffer_master + ( 6 ) , R30
                 	__PUTB1MN _rx_buffer_master,6
                 ; 0000 02A4 rx_buffer_master[7]=0;
                +
000cbe 93e0 0511+STS _rx_buffer_master + ( 7 ) , R30
                 	__PUTB1MN _rx_buffer_master,7
                 ; 0000 02A5 rx_buffer_master[8]=0;
                +
000cc0 93e0 0512+STS _rx_buffer_master + ( 8 ) , R30
                 	__PUTB1MN _rx_buffer_master,8
                 ; 0000 02A6 rx_buffer_master[9]=0;
                +
000cc2 93e0 0513+STS _rx_buffer_master + ( 9 ) , R30
                 	__PUTB1MN _rx_buffer_master,9
                 ; 0000 02A7 crc_master=0xFFFF;
000cc4 efef      	LDI  R30,LOW(65535)
000cc5 efff      	LDI  R31,HIGH(65535)
000cc6 93e0 059b 	STS  _crc_master,R30
000cc8 93f0 059c 	STS  _crc_master+1,R31
                 ; 0000 02A8 mov_buf_master(0x01);
000cca e0a1      	LDI  R26,LOW(1)
000ccb 940e 1806 	CALL _mov_buf_master
                 ; 0000 02A9 mov_buf_master(0x04);
000ccd e0a4      	LDI  R26,LOW(4)
000cce 940e 1806 	CALL _mov_buf_master
                 ; 0000 02AA mov_buf_master(0x00);
000cd0 e0a0      	LDI  R26,LOW(0)
000cd1 940e 1806 	CALL _mov_buf_master
                 ; 0000 02AB mov_buf_master(m+addrval);
000cd3 81ae      	LDD  R26,Y+6
000cd4 0fa0      	ADD  R26,R16
000cd5 940e 1806 	CALL _mov_buf_master
                 ; 0000 02AC mov_buf_master(0x00);
000cd7 e0a0      	LDI  R26,LOW(0)
000cd8 940e 1806 	CALL _mov_buf_master
                 ; 0000 02AD mov_buf_master(0x01);
000cda e0a1      	LDI  R26,LOW(1)
000cdb 940e 1806 	CALL _mov_buf_master
                 ; 0000 02AE crc_end_master();
000cdd 940e 1827 	CALL _crc_end_master
                 ; 0000 02AF 
                 ; 0000 02B0 whait_read;
000cdf e0e0      	LDI  R30,LOW(0)
000ce0 e0f0      	LDI  R31,HIGH(0)
000ce1 bdfd      	OUT  0x2C+1,R31
000ce2 bdec      	OUT  0x2C,R30
000ce3 e0e3      	LDI  R30,LOW(3)
000ce4 bdee      	OUT  0x2E,R30
                 _0x2ED:
000ce5 b7e6      	IN   R30,0x36
000ce6 ffe2      	SBRS R30,2
000ce7 cffd      	RJMP _0x2ED
000ce8 e0e0      	LDI  R30,LOW(0)
000ce9 bdee      	OUT  0x2E,R30
000cea b7e6      	IN   R30,0x36
000ceb bfe6      	OUT  0x36,R30
                 ; 0000 02B1 //delay_ms(65);
                 ; 0000 02B2  /*if((skz1or2==0)&&(blink_flag==1)&&(warning_flag==0)){
                 ; 0000 02B3  led_red_off;
                 ; 0000 02B4  led_green_off;
                 ; 0000 02B5  delay_ms(300);} */
                 ; 0000 02B6 
                 ; 0000 02B7 //if(BKI_state_sent==0){;}
                 ; 0000 02B8 
                 ; 0000 02B9 if (check_cr_master()==1)
000cec 940e 1757 	CALL _check_cr_master
000cee 30e1      	CPI  R30,LOW(0x1)
000cef f4d9      	BRNE _0x2F0
                 ; 0000 02BA               {SKZ_read=0;
000cf0 e0e0      	LDI  R30,LOW(0)
000cf1 93e0 0500 	STS  _SKZ_read,R30
000cf3 93e0 0501 	STS  _SKZ_read+1,R30
                 ; 0000 02BB               if(rx_counter_master==7){SKZ_read=((unsigned int)rx_buffer_master[3]<<8)+rx_buffer_master[4];BPS_absent=0; ...
000cf5 91a0 0596 	LDS  R26,_rx_counter_master
000cf7 30a7      	CPI  R26,LOW(0x7)
000cf8 f489      	BRNE _0x2F1
                +
000cf9 91b0 050d+LDS R27 , _rx_buffer_master + ( 3 )
                 	__GETBRMN 27,_rx_buffer_master,3
000cfb e0a0      	LDI  R26,LOW(0)
                +
000cfc 91e0 050e+LDS R30 , _rx_buffer_master + ( 4 )
                 	__GETB1MN _rx_buffer_master,4
000cfe e0f0      	LDI  R31,0
000cff 0fea      	ADD  R30,R26
000d00 1ffb      	ADC  R31,R27
000d01 93e0 0500 	STS  _SKZ_read,R30
000d03 93f0 0501 	STS  _SKZ_read+1,R31
000d05 e0e0      	LDI  R30,LOW(0)
000d06 93e0 0506 	STS  _BPS_absent,R30
000d08 93e0 0507 	STS  _BPS_absent+1,R30
                 _0x2F1:
                 ; 0000 02BC               else BPS_absent=1;
000d0a c006      	RJMP _0x2F2
                 _0x2F0:
000d0b e0e1      	LDI  R30,LOW(1)
000d0c e0f0      	LDI  R31,HIGH(1)
000d0d 93e0 0506 	STS  _BPS_absent,R30
000d0f 93f0 0507 	STS  _BPS_absent+1,R31
                 ; 0000 02BD               #asm(" sei")
                 _0x2F2:
000d11 9478      	 sei
                 ; 0000 02BE               EEPROM_write(0x0405+2*m, rx_buffer_master[3]);
                +
000d12 e0a2     +LDI R26 , 2
000d13 9fa0     +MUL R26 , R16
000d14 01f0     +MOVW R30 , R0
000d15 9fa1     +MUL R26 , R17
000d16 0df0     +ADD R31 , R0
                 	__MULBNWRU 16,17,2
000d17 5feb      	SUBI R30,LOW(-1029)
000d18 4ffb      	SBCI R31,HIGH(-1029)
000d19 93fa      	ST   -Y,R31
000d1a 93ea      	ST   -Y,R30
                +
000d1b 91a0 050d+LDS R26 , _rx_buffer_master + ( 3 )
                 	__GETB2MN _rx_buffer_master,3
000d1d dae6      	RCALL _EEPROM_write
                 ; 0000 02BF               EEPROM_write(0x0405+2*m+1, rx_buffer_master[4] );
                +
000d1e e0a2     +LDI R26 , 2
000d1f 9fa0     +MUL R26 , R16
000d20 01f0     +MOVW R30 , R0
000d21 9fa1     +MUL R26 , R17
000d22 0df0     +ADD R31 , R0
                 	__MULBNWRU 16,17,2
000d23 5fea      	SUBI R30,LOW(-1030)
000d24 4ffb      	SBCI R31,HIGH(-1030)
000d25 93fa      	ST   -Y,R31
000d26 93ea      	ST   -Y,R30
                +
000d27 91a0 050e+LDS R26 , _rx_buffer_master + ( 4 )
                 	__GETB2MN _rx_buffer_master,4
000d29 dada      	RCALL _EEPROM_write
                 ; 0000 02C0               #asm(" cli")
000d2a 94f8      	 cli
                 ; 0000 02C1 
                 ; 0000 02C2 //              blink_display (rx_buffer_master[3]);
                 ; 0000 02C3 //              blink_display (rx_buffer_master[4]);
                 ; 0000 02C4 }
                +
000d2b 5f0f     +SUBI R16 , LOW ( - 1 )
000d2c 4f1f     +SBCI R17 , HIGH ( - 1 )
                 	__ADDWRN 16,17,1
000d2d cf76      	RJMP _0x2EB
                 _0x2EC:
                 ; 0000 02C5  ProcessingEEPROM=0;led_calibration_off;if(warning_flag)led_warning_on; blink_on(); }
000d2e 94e8      	CLT
000d2f f825      	BLD  R2,5
000d30 98da      	CBI  0x1B,2
000d31 91e0 05b3 	LDS  R30,_warning_flag
000d33 91f0 05b4 	LDS  R31,_warning_flag+1
000d35 9730      	SBIW R30,0
000d36 f029      	BREQ _0x2F5
000d37 91e0 0062 	LDS  R30,98
000d39 61e0      	ORI  R30,0x10
000d3a 93e0 0062 	STS  98,R30
                 _0x2F5:
000d3c def1      	RCALL _blink_on
000d3d 940e 1a7a 	CALL __LOADLOCR6
000d3f 962a      	ADIW R28,10
000d40 9508      	RET
                 ; .FEND
                 ;
                 ;
                 ;void save_freq_order()//τσνκφθ χθςΰες οξπδξκ χΰρςξς θ ρξυπΰνες β ΑΚΘ
                 ; 0000 02C9 {unsigned int m;      // ΰ ςΰκζε ρπΰησ ρξυπΰνες εγξ β οΰμςθ eeprom ΑΚΘ
                 _save_freq_order:
                 ; .FSTART _save_freq_order
                 ; 0000 02CA unsigned int val,addrval;
                 ; 0000 02CB val=0;addrval=0x60;ProcessingEEPROM=1;        //ΰδπερΰ addrval οξδξαπΰνϋ θρυξδ θη ΰδπερξβ κξμΰνδ μξδαΰρ δλ χςενθ σκΰη ...
000d41 940e 1a73 	CALL __SAVELOCR6
                 ;	m -> R16,R17
                 ;	val -> R18,R19
                 ;	addrval -> R20,R21
                +
000d43 e020     +LDI R18 , LOW ( 0 )
000d44 e030     +LDI R19 , HIGH ( 0 )
                 	__GETWRN 18,19,0
                +
000d45 e640     +LDI R20 , LOW ( 96 )
000d46 e050     +LDI R21 , HIGH ( 96 )
                 	__GETWRN 20,21,96
000d47 9468      	SET
000d48 f825      	BLD  R2,5
                 ; 0000 02CC for (m=val;m<19;m++){
000d49 0189      	MOVW R16,R18
                 _0x2F7:
                +
000d4a 3103     +CPI R16 , LOW ( 19 )
000d4b e0e0     +LDI R30 , HIGH ( 19 )
000d4c 071e     +CPC R17 , R30
                 	__CPWRN 16,17,19
000d4d f008      	BRLO PC+2
000d4e c077      	RJMP _0x2F8
                 ; 0000 02CD led_warning_off;
000d4f 91e0 0062 	LDS  R30,98
000d51 7eef      	ANDI R30,0xEF
000d52 93e0 0062 	STS  98,R30
                 ; 0000 02CE led_calibration_on;
000d54 9ada      	SBI  0x1B,2
                 ; 0000 02CF blink_off();
000d55 dee0      	RCALL _blink_off
                 ; 0000 02D0 //led_red_on;
                 ; 0000 02D1 /*if(skz1or2==1)led_red_on;
                 ; 0000 02D2 else {led_red_off;
                 ; 0000 02D3      if(!warning_flag)led_green_off;
                 ; 0000 02D4      else led_green_on;}*/
                 ; 0000 02D5 rx_c_master=0;rx_m_master=0;rx_wr_index_master=0;rx_counter_master=0;ClearBuf_master;
000d56 94e8      	CLT
000d57 f822      	BLD  R2,2
000d58 f821      	BLD  R2,1
000d59 e0e0      	LDI  R30,LOW(0)
000d5a 93e0 0595 	STS  _rx_wr_index_master,R30
000d5c 93e0 0596 	STS  _rx_counter_master,R30
000d5e 93e0 050a 	STS  _rx_buffer_master,R30
                +
000d60 93e0 050b+STS _rx_buffer_master + ( 1 ) , R30
                 	__PUTB1MN _rx_buffer_master,1
                +
000d62 93e0 050c+STS _rx_buffer_master + ( 2 ) , R30
                 	__PUTB1MN _rx_buffer_master,2
                +
000d64 93e0 050d+STS _rx_buffer_master + ( 3 ) , R30
                 	__PUTB1MN _rx_buffer_master,3
                +
000d66 93e0 050e+STS _rx_buffer_master + ( 4 ) , R30
                 	__PUTB1MN _rx_buffer_master,4
                +
000d68 93e0 050f+STS _rx_buffer_master + ( 5 ) , R30
                 	__PUTB1MN _rx_buffer_master,5
                +
000d6a 93e0 0510+STS _rx_buffer_master + ( 6 ) , R30
                 	__PUTB1MN _rx_buffer_master,6
                +
000d6c 93e0 0511+STS _rx_buffer_master + ( 7 ) , R30
                 	__PUTB1MN _rx_buffer_master,7
                +
000d6e 93e0 0512+STS _rx_buffer_master + ( 8 ) , R30
                 	__PUTB1MN _rx_buffer_master,8
                +
000d70 93e0 0513+STS _rx_buffer_master + ( 9 ) , R30
                 	__PUTB1MN _rx_buffer_master,9
                 ; 0000 02D6 crc_master=0xFFFF;
000d72 efef      	LDI  R30,LOW(65535)
000d73 efff      	LDI  R31,HIGH(65535)
000d74 93e0 059b 	STS  _crc_master,R30
000d76 93f0 059c 	STS  _crc_master+1,R31
                 ; 0000 02D7 mov_buf_master(0x01);
000d78 e0a1      	LDI  R26,LOW(1)
000d79 940e 1806 	CALL _mov_buf_master
                 ; 0000 02D8 mov_buf_master(0x04);
000d7b e0a4      	LDI  R26,LOW(4)
000d7c 940e 1806 	CALL _mov_buf_master
                 ; 0000 02D9 mov_buf_master(0x00);
000d7e e0a0      	LDI  R26,LOW(0)
000d7f 940e 1806 	CALL _mov_buf_master
                 ; 0000 02DA mov_buf_master(m+addrval);
000d81 2fa4      	MOV  R26,R20
000d82 0fa0      	ADD  R26,R16
000d83 940e 1806 	CALL _mov_buf_master
                 ; 0000 02DB mov_buf_master(0x00);
000d85 e0a0      	LDI  R26,LOW(0)
000d86 940e 1806 	CALL _mov_buf_master
                 ; 0000 02DC mov_buf_master(0x01);
000d88 e0a1      	LDI  R26,LOW(1)
000d89 940e 1806 	CALL _mov_buf_master
                 ; 0000 02DD crc_end_master();
000d8b 940e 1827 	CALL _crc_end_master
                 ; 0000 02DE 
                 ; 0000 02DF //delay_ms(65);
                 ; 0000 02E0 whait_read;
000d8d e0e0      	LDI  R30,LOW(0)
000d8e e0f0      	LDI  R31,HIGH(0)
000d8f bdfd      	OUT  0x2C+1,R31
000d90 bdec      	OUT  0x2C,R30
000d91 e0e3      	LDI  R30,LOW(3)
000d92 bdee      	OUT  0x2E,R30
                 _0x2FB:
000d93 b7e6      	IN   R30,0x36
000d94 ffe2      	SBRS R30,2
000d95 cffd      	RJMP _0x2FB
000d96 e0e0      	LDI  R30,LOW(0)
000d97 bdee      	OUT  0x2E,R30
000d98 b7e6      	IN   R30,0x36
000d99 bfe6      	OUT  0x36,R30
                 ; 0000 02E1  /*if((skz1or2==0)&&(blink_flag==1)&&(warning_flag==0)){
                 ; 0000 02E2  led_red_off;
                 ; 0000 02E3  led_green_off;
                 ; 0000 02E4  delay_ms(300);} */
                 ; 0000 02E5 
                 ; 0000 02E6 //delay_ms(15000);
                 ; 0000 02E7 if (check_cr_master()==1)
000d9a 940e 1757 	CALL _check_cr_master
000d9c 30e1      	CPI  R30,LOW(0x1)
000d9d f4b1      	BRNE _0x2FE
                 ; 0000 02E8               {SKZ_read=0;
000d9e e0e0      	LDI  R30,LOW(0)
000d9f 93e0 0500 	STS  _SKZ_read,R30
000da1 93e0 0501 	STS  _SKZ_read+1,R30
                 ; 0000 02E9               if(rx_counter_master==7){FreqOrder_read=rx_buffer_master[3]|rx_buffer_master[4];BPS_absent=0;}}
000da3 91a0 0596 	LDS  R26,_rx_counter_master
000da5 30a7      	CPI  R26,LOW(0x7)
000da6 f461      	BRNE _0x2FF
                +
000da7 91a0 050d+LDS R26 , _rx_buffer_master + ( 3 )
                 	__GETB2MN _rx_buffer_master,3
                +
000da9 91e0 050e+LDS R30 , _rx_buffer_master + ( 4 )
                 	__GETB1MN _rx_buffer_master,4
000dab 2bea      	OR   R30,R26
000dac 93e0 05ab 	STS  _FreqOrder_read,R30
000dae e0e0      	LDI  R30,LOW(0)
000daf 93e0 0506 	STS  _BPS_absent,R30
000db1 93e0 0507 	STS  _BPS_absent+1,R30
                 _0x2FF:
                 ; 0000 02EA               else BPS_absent=1;
000db3 c006      	RJMP _0x300
                 _0x2FE:
000db4 e0e1      	LDI  R30,LOW(1)
000db5 e0f0      	LDI  R31,HIGH(1)
000db6 93e0 0506 	STS  _BPS_absent,R30
000db8 93f0 0507 	STS  _BPS_absent+1,R31
                 ; 0000 02EB               #asm(" sei")
                 _0x300:
000dba 9478      	 sei
                 ; 0000 02EC               EEPROM_write(eeAddressFirstFreq, FreqOrder_read);
000dbb e0e5      	LDI  R30,LOW(1541)
000dbc e0f6      	LDI  R31,HIGH(1541)
000dbd 93fa      	ST   -Y,R31
000dbe 93ea      	ST   -Y,R30
000dbf 91a0 05ab 	LDS  R26,_FreqOrder_read
000dc1 da42      	RCALL _EEPROM_write
                 ; 0000 02ED               #asm(" cli")
000dc2 94f8      	 cli
                 ; 0000 02EE 
                 ; 0000 02EF //              blink_display (rx_buffer_master[3]);
                 ; 0000 02F0 //              blink_display (rx_buffer_master[4]);
                 ; 0000 02F1 }ProcessingEEPROM=0;led_calibration_off;if(warning_flag)led_warning_on; blink_on(); }
                +
000dc3 5f0f     +SUBI R16 , LOW ( - 1 )
000dc4 4f1f     +SBCI R17 , HIGH ( - 1 )
                 	__ADDWRN 16,17,1
000dc5 cf84      	RJMP _0x2F7
                 _0x2F8:
000dc6 94e8      	CLT
000dc7 f825      	BLD  R2,5
000dc8 98da      	CBI  0x1B,2
000dc9 91e0 05b3 	LDS  R30,_warning_flag
000dcb 91f0 05b4 	LDS  R31,_warning_flag+1
000dcd 9730      	SBIW R30,0
000dce f029      	BREQ _0x303
000dcf 91e0 0062 	LDS  R30,98
000dd1 61e0      	ORI  R30,0x10
000dd2 93e0 0062 	STS  98,R30
                 _0x303:
000dd4 de59      	RCALL _blink_on
000dd5 940e 1a7a 	CALL __LOADLOCR6
000dd7 9626      	ADIW R28,6
000dd8 9508      	RET
                 ; .FEND
                 ;
                 ;/*void recieve_skz_array()
                 ;{unsigned int m;
                 ;rx_c_master=0;rx_m_master=0;rx_wr_index_master=0;rx_counter_master=0;
                 ;for(m=0;m<80;m++)rx_buffer_master[m]=0;
                 ;if (check_cr_master()==1){
                 ;if(rx_counter_master==80){
                 ;for (m=0;m<38;m++)
                 ;{
                 ; //#asm(" sei")
                 ; EEPROM_write(eeAdrSKZ1ar+m, rx_buffer_master[m+2] );               //ρξυπΰνεμ εγξ β εεοπξμ
                 ;// #asm(" cli")}
                 ; for (m=0;m<38;m++)
                 ;{
                 ;// #asm(" sei")
                 ; EEPROM_write(eeAdrSKZ2ar+m, rx_buffer_master[m+40] );               //ρξυπΰνεμ εγξ β εεοπξμ
                 ;// #asm(" cli")}            } }
                 ;} */
                 ;
                 ;void send_frequency_value()              //τσνκφθ ξςοπΰβλώωΰ νΰ ΑΟΡ ηνΰχενθε βελθχθνσ κξλθχερςβΰ πΰαξχθυ χΰρςξς, ρξυπ ...
                 ; 0000 0306 {unsigned int m;
                 _send_frequency_value:
                 ; .FSTART _send_frequency_value
                 ; 0000 0307 rx_c_master=0;rx_m_master=0;
000dd9 931a      	ST   -Y,R17
000dda 930a      	ST   -Y,R16
                 ;	m -> R16,R17
000ddb 94e8      	CLT
000ddc f822      	BLD  R2,2
000ddd f821      	BLD  R2,1
                 ; 0000 0308 rx_wr_index_master=0;rx_counter_master=0;
000dde e0e0      	LDI  R30,LOW(0)
000ddf 93e0 0595 	STS  _rx_wr_index_master,R30
000de1 93e0 0596 	STS  _rx_counter_master,R30
                 ; 0000 0309 rx_c_slave=0;rx_m_slave=0;
000de3 f835      	BLD  R3,5
000de4 f834      	BLD  R3,4
                 ; 0000 030A rx_wr_index_slave=0;rx_counter_slave=0;
000de5 93e0 0844 	STS  _rx_wr_index_slave,R30
000de7 93e0 0845 	STS  _rx_counter_slave,R30
                 ; 0000 030B //for(m=0;m<80;m++)tx_buffer_master[m]=0;
                 ; 0000 030C crc_master=0xFFFF;
000de9 efef      	LDI  R30,LOW(65535)
000dea efff      	LDI  R31,HIGH(65535)
000deb 93e0 059b 	STS  _crc_master,R30
000ded 93f0 059c 	STS  _crc_master+1,R31
                 ; 0000 030D mov_buf_master(0x01);
000def e0a1      	LDI  R26,LOW(1)
000df0 940e 1806 	CALL _mov_buf_master
                 ; 0000 030E mov_buf_master(0xcc);
000df2 ecac      	LDI  R26,LOW(204)
000df3 940e 1806 	CALL _mov_buf_master
                 ; 0000 030F mov_buf_master(FrequencyQ);
000df5 91a0 05b5 	LDS  R26,_FrequencyQ
000df7 940e 1806 	CALL _mov_buf_master
                 ; 0000 0310 mov_buf_master(FrequencyQ);
000df9 91a0 05b5 	LDS  R26,_FrequencyQ
000dfb 940e 1806 	CALL _mov_buf_master
                 ; 0000 0311  crc_end_master();
000dfd c0bf      	RJMP _0x20A0003
                 ; 0000 0312 }
                 ; .FEND
                 ;
                 ;void send_SKZMIN_value()              //τσνκφθ ξςοπΰβλώωΰ νΰ ΑΟΡ βελθχθνσ μθνθμΰλόνξγξ ΡΚΗ ρξυπΰνεννϋε β εεοπξμ ΑΚΘ
                 ; 0000 0315 {unsigned int m;
                 _send_SKZMIN_value:
                 ; .FSTART _send_SKZMIN_value
                 ; 0000 0316 rx_c_master=0;rx_m_master=0;
000dfe 931a      	ST   -Y,R17
000dff 930a      	ST   -Y,R16
                 ;	m -> R16,R17
000e00 94e8      	CLT
000e01 f822      	BLD  R2,2
000e02 f821      	BLD  R2,1
                 ; 0000 0317 rx_wr_index_master=0;rx_counter_master=0;
000e03 e0e0      	LDI  R30,LOW(0)
000e04 93e0 0595 	STS  _rx_wr_index_master,R30
000e06 93e0 0596 	STS  _rx_counter_master,R30
                 ; 0000 0318 rx_c_slave=0;rx_m_slave=0;
000e08 f835      	BLD  R3,5
000e09 f834      	BLD  R3,4
                 ; 0000 0319 rx_wr_index_slave=0;rx_counter_slave=0;
000e0a 93e0 0844 	STS  _rx_wr_index_slave,R30
000e0c 93e0 0845 	STS  _rx_counter_slave,R30
                 ; 0000 031A //for(m=0;m<80;m++)tx_buffer_master[m]=0;
                 ; 0000 031B crc_master=0xFFFF;
000e0e efef      	LDI  R30,LOW(65535)
000e0f efff      	LDI  R31,HIGH(65535)
000e10 93e0 059b 	STS  _crc_master,R30
000e12 93f0 059c 	STS  _crc_master+1,R31
                 ; 0000 031C mov_buf_master(0x01);
000e14 e0a1      	LDI  R26,LOW(1)
000e15 940e 1806 	CALL _mov_buf_master
                 ; 0000 031D mov_buf_master(0xcb);
000e17 ecab      	LDI  R26,LOW(203)
000e18 940e 1806 	CALL _mov_buf_master
                 ; 0000 031E mov_buf_master((char)(minimal_SKZ_val>>8));
000e1a 91e0 0592 	LDS  R30,_minimal_SKZ_val+1
000e1c 2fae      	MOV  R26,R30
000e1d 940e 1806 	CALL _mov_buf_master
                 ; 0000 031F mov_buf_master(minimal_SKZ_val);
000e1f 91a0 0591 	LDS  R26,_minimal_SKZ_val
000e21 940e 1806 	CALL _mov_buf_master
                 ; 0000 0320  crc_end_master();
000e23 940e 1827 	CALL _crc_end_master
                 ; 0000 0321  whait_read;
000e25 e0e0      	LDI  R30,LOW(0)
000e26 e0f0      	LDI  R31,HIGH(0)
000e27 bdfd      	OUT  0x2C+1,R31
000e28 bdec      	OUT  0x2C,R30
000e29 e0e3      	LDI  R30,LOW(3)
000e2a bdee      	OUT  0x2E,R30
                 _0x304:
000e2b b7e6      	IN   R30,0x36
000e2c ffe2      	SBRS R30,2
000e2d cffd      	RJMP _0x304
000e2e e0e0      	LDI  R30,LOW(0)
000e2f bdee      	OUT  0x2E,R30
000e30 b7e6      	IN   R30,0x36
000e31 bfe6      	OUT  0x36,R30
                 ; 0000 0322 }
000e32 c08c      	RJMP _0x20A0004
                 ; .FEND
                 ;void send_minimal_operat_val()              //τσνκφθ ξςοπΰβλώωΰ νΰ ΑΟΡ βελθχθνσ ηνΰχενθ ΡΚΗ, ρξξςβεςρςβσώωεγξ σπξβνώ ...
                 ; 0000 0324 {unsigned int m;
                 _send_minimal_operat_val:
                 ; .FSTART _send_minimal_operat_val
                 ; 0000 0325 rx_c_master=0;rx_m_master=0;
000e33 931a      	ST   -Y,R17
000e34 930a      	ST   -Y,R16
                 ;	m -> R16,R17
000e35 94e8      	CLT
000e36 f822      	BLD  R2,2
000e37 f821      	BLD  R2,1
                 ; 0000 0326 rx_wr_index_master=0;rx_counter_master=0;
000e38 e0e0      	LDI  R30,LOW(0)
000e39 93e0 0595 	STS  _rx_wr_index_master,R30
000e3b 93e0 0596 	STS  _rx_counter_master,R30
                 ; 0000 0327 rx_c_slave=0;rx_m_slave=0;
000e3d f835      	BLD  R3,5
000e3e f834      	BLD  R3,4
                 ; 0000 0328 rx_wr_index_slave=0;rx_counter_slave=0;
000e3f 93e0 0844 	STS  _rx_wr_index_slave,R30
000e41 93e0 0845 	STS  _rx_counter_slave,R30
                 ; 0000 0329 //for(m=0;m<80;m++)tx_buffer_master[m]=0;
                 ; 0000 032A crc_master=0xFFFF;
000e43 efef      	LDI  R30,LOW(65535)
000e44 efff      	LDI  R31,HIGH(65535)
000e45 93e0 059b 	STS  _crc_master,R30
000e47 93f0 059c 	STS  _crc_master+1,R31
                 ; 0000 032B mov_buf_master(0x01);
000e49 e0a1      	LDI  R26,LOW(1)
000e4a 940e 1806 	CALL _mov_buf_master
                 ; 0000 032C mov_buf_master(0xcf);
000e4c ecaf      	LDI  R26,LOW(207)
000e4d 940e 1806 	CALL _mov_buf_master
                 ; 0000 032D mov_buf_master((int)(minimal_object_enabled_level>>8));
000e4f 91e0 0594 	LDS  R30,_minimal_object_enabled_level+1
000e51 2fae      	MOV  R26,R30
000e52 940e 1806 	CALL _mov_buf_master
                 ; 0000 032E mov_buf_master(minimal_object_enabled_level);
000e54 91a0 0593 	LDS  R26,_minimal_object_enabled_level
000e56 940e 1806 	CALL _mov_buf_master
                 ; 0000 032F  crc_end_master();
000e58 940e 1827 	CALL _crc_end_master
                 ; 0000 0330  whait_read;
000e5a e0e0      	LDI  R30,LOW(0)
000e5b e0f0      	LDI  R31,HIGH(0)
000e5c bdfd      	OUT  0x2C+1,R31
000e5d bdec      	OUT  0x2C,R30
000e5e e0e3      	LDI  R30,LOW(3)
000e5f bdee      	OUT  0x2E,R30
                 _0x307:
000e60 b7e6      	IN   R30,0x36
000e61 ffe2      	SBRS R30,2
000e62 cffd      	RJMP _0x307
000e63 e0e0      	LDI  R30,LOW(0)
000e64 bdee      	OUT  0x2E,R30
000e65 b7e6      	IN   R30,0x36
000e66 bfe6      	OUT  0x36,R30
                 ; 0000 0331 //transmitter_on;TX_slave_on;printf("eval1=%d eval2=%d\r\n",(int)(minimal_object_enabled_level>>8),minimal_object_enable ...
                 ; 0000 0332 }
000e67 c057      	RJMP _0x20A0004
                 ; .FEND
                 ;void send_skz_array()              //τσνκφθ ξςοπΰβλώωΰ νΰ ΑΟΡ ηνΰχενθε μΰρρθβξβ ΡΚΗ1 θ ΡΚΗ2 ρξυπΰνεννϋε β εεοπξμ ΑΚΘ
                 ; 0000 0334 {unsigned int m;
                 _send_skz_array:
                 ; .FSTART _send_skz_array
                 ; 0000 0335 rx_c_master=0;rx_m_master=0;
000e68 931a      	ST   -Y,R17
000e69 930a      	ST   -Y,R16
                 ;	m -> R16,R17
000e6a 94e8      	CLT
000e6b f822      	BLD  R2,2
000e6c f821      	BLD  R2,1
                 ; 0000 0336 rx_wr_index_master=0;rx_counter_master=0;
000e6d e0e0      	LDI  R30,LOW(0)
000e6e 93e0 0595 	STS  _rx_wr_index_master,R30
000e70 93e0 0596 	STS  _rx_counter_master,R30
                 ; 0000 0337 rx_c_slave=0;rx_m_slave=0;
000e72 f835      	BLD  R3,5
000e73 f834      	BLD  R3,4
                 ; 0000 0338 rx_wr_index_slave=0;rx_counter_slave=0;
000e74 93e0 0844 	STS  _rx_wr_index_slave,R30
000e76 93e0 0845 	STS  _rx_counter_slave,R30
                 ; 0000 0339 //for(m=0;m<80;m++)tx_buffer_master[m]=0;
                 ; 0000 033A crc_master=0xFFFF;
000e78 efef      	LDI  R30,LOW(65535)
000e79 efff      	LDI  R31,HIGH(65535)
000e7a 93e0 059b 	STS  _crc_master,R30
000e7c 93f0 059c 	STS  _crc_master+1,R31
                 ; 0000 033B mov_buf_master(0x01);
000e7e e0a1      	LDI  R26,LOW(1)
000e7f 940e 1806 	CALL _mov_buf_master
                 ; 0000 033C mov_buf_master(0xcd);
000e81 ecad      	LDI  R26,LOW(205)
000e82 940e 1806 	CALL _mov_buf_master
                 ; 0000 033D for (m=0;m<76;m++)
                +
000e84 e000     +LDI R16 , LOW ( 0 )
000e85 e010     +LDI R17 , HIGH ( 0 )
                 	__GETWRN 16,17,0
                 _0x30B:
                +
000e86 340c     +CPI R16 , LOW ( 76 )
000e87 e0e0     +LDI R30 , HIGH ( 76 )
000e88 071e     +CPC R17 , R30
                 	__CPWRN 16,17,76
000e89 f458      	BRSH _0x30C
                 ; 0000 033E {
                 ; 0000 033F // #asm(" sei")
                 ; 0000 0340  mov_buf_master(EEPROM_read(0x0405+m));    }           //χθςΰεμ μΰρρθβ θη οΰμςθ
000e8a 01d8      	MOVW R26,R16
000e8b 5fab      	SUBI R26,LOW(-1029)
000e8c 4fbb      	SBCI R27,HIGH(-1029)
000e8d 940e 0811 	CALL _EEPROM_read
000e8f 2fae      	MOV  R26,R30
000e90 940e 1806 	CALL _mov_buf_master
                +
000e92 5f0f     +SUBI R16 , LOW ( - 1 )
000e93 4f1f     +SBCI R17 , HIGH ( - 1 )
                 	__ADDWRN 16,17,1
000e94 cff1      	RJMP _0x30B
                 _0x30C:
                 ; 0000 0341 // #asm(" cli")}
                 ; 0000 0342  crc_end_master();
000e95 c027      	RJMP _0x20A0003
                 ; 0000 0343 }
                 ; .FEND
                 ;
                 ;void send_freq_order()              //τσνκφθ ξςοπΰβλώωΰ νΰ ΑΟΡ ηνΰχενθε μΰρρθβξβ ΡΚΗ1 θ ΡΚΗ2 ρξυπΰνεννϋε β εεοπξμ ΑΚΘ
                 ; 0000 0346 {unsigned int m;
                 _send_freq_order:
                 ; .FSTART _send_freq_order
                 ; 0000 0347 rx_c_master=0;rx_m_master=0;
000e96 931a      	ST   -Y,R17
000e97 930a      	ST   -Y,R16
                 ;	m -> R16,R17
000e98 94e8      	CLT
000e99 f822      	BLD  R2,2
000e9a f821      	BLD  R2,1
                 ; 0000 0348 rx_wr_index_master=0;rx_counter_master=0;
000e9b e0e0      	LDI  R30,LOW(0)
000e9c 93e0 0595 	STS  _rx_wr_index_master,R30
000e9e 93e0 0596 	STS  _rx_counter_master,R30
                 ; 0000 0349 //for(m=0;m<80;m++)tx_buffer_master[m]=0;
                 ; 0000 034A crc_master=0xFFFF;
000ea0 efef      	LDI  R30,LOW(65535)
000ea1 efff      	LDI  R31,HIGH(65535)
000ea2 93e0 059b 	STS  _crc_master,R30
000ea4 93f0 059c 	STS  _crc_master+1,R31
                 ; 0000 034B mov_buf_master(0x01);
000ea6 e0a1      	LDI  R26,LOW(1)
000ea7 940e 1806 	CALL _mov_buf_master
                 ; 0000 034C mov_buf_master(0xce);
000ea9 ecae      	LDI  R26,LOW(206)
000eaa 940e 1806 	CALL _mov_buf_master
                 ; 0000 034D for (m=0;m<19;m++)
                +
000eac e000     +LDI R16 , LOW ( 0 )
000ead e010     +LDI R17 , HIGH ( 0 )
                 	__GETWRN 16,17,0
                 _0x30E:
                +
000eae 3103     +CPI R16 , LOW ( 19 )
000eaf e0e0     +LDI R30 , HIGH ( 19 )
000eb0 071e     +CPC R17 , R30
                 	__CPWRN 16,17,19
000eb1 f458      	BRSH _0x30F
                 ; 0000 034E {
                 ; 0000 034F // #asm(" sei")
                 ; 0000 0350  mov_buf_master(EEPROM_read(eeAddressFirstFreq+m));    }           //χθςΰεμ μΰρρθβ θη οΰμςθ
000eb2 01d8      	MOVW R26,R16
000eb3 5fab      	SUBI R26,LOW(-1541)
000eb4 4fb9      	SBCI R27,HIGH(-1541)
000eb5 940e 0811 	CALL _EEPROM_read
000eb7 2fae      	MOV  R26,R30
000eb8 940e 1806 	CALL _mov_buf_master
                +
000eba 5f0f     +SUBI R16 , LOW ( - 1 )
000ebb 4f1f     +SBCI R17 , HIGH ( - 1 )
                 	__ADDWRN 16,17,1
000ebc cff1      	RJMP _0x30E
                 _0x30F:
                 ; 0000 0351 // #asm(" cli")}
                 ; 0000 0352  crc_end_master();
                 _0x20A0003:
000ebd 940e 1827 	CALL _crc_end_master
                 ; 0000 0353 }
                 _0x20A0004:
000ebf 9109      	LD   R16,Y+
000ec0 9119      	LD   R17,Y+
000ec1 9508      	RET
                 ; .FEND
                 ;
                 ;void go_main_menu(){
                 ; 0000 0355 void go_main_menu(){
                 ; 0000 0356 //TX_master_on;
                 ; 0000 0357 TX_slave_on;
                 ; 0000 0358 printf("\r\n if you want to set Modbus address please type 'a' letter \r\n");
                 ; 0000 0359 printf("\r\n if you want to set Averaging out time value please type 'v' letter \r\n");
                 ; 0000 035A printf("\r\n if you want to set the number of working frequencies please type 'f' letter \r\n");
                 ; 0000 035B printf("\r\n if you want to set the minimal SKZ value in ADC units please type 'm' letter \r\n");
                 ; 0000 035C printf("\r\n if you want to overview the current configuration  please type 'o' letter \r\n");
                 ; 0000 035D //TX_master_off;
                 ; 0000 035E TX_slave_off;
                 ; 0000 035F }
                 ;
                 ;void echo_answer_0x03(){
                 ; 0000 0361 void echo_answer_0x03(){
                 ; 0000 0362 crc_slave=0xFFFF;
                 ; 0000 0363 mov_buf_slave(rx_buffer_slave[0]);
                 ; 0000 0364 mov_buf_slave(rx_buffer_slave[1]);
                 ; 0000 0365 mov_buf_slave(rx_buffer_slave[2]);
                 ; 0000 0366 mov_buf_slave(rx_buffer_slave[3]);
                 ; 0000 0367 mov_buf_slave(rx_buffer_slave[4]);
                 ; 0000 0368 crc_end_slave();
                 ; 0000 0369 //whait_read;
                 ; 0000 036A }
                 ;
                 ;void echo_answer_0x06(){
                 ; 0000 036C void echo_answer_0x06(){
                 ; 0000 036D mov_buf_slave(rx_buffer_slave[0]);
                 ; 0000 036E mov_buf_slave(rx_buffer_slave[1]);
                 ; 0000 036F mov_buf_slave(rx_buffer_slave[2]);
                 ; 0000 0370 mov_buf_slave(rx_buffer_slave[3]);
                 ; 0000 0371 mov_buf_slave(rx_buffer_slave[4]);
                 ; 0000 0372 mov_buf_slave(rx_buffer_slave[5]);
                 ; 0000 0373 crc_end_slave();
                 ; 0000 0374 //whait_read;
                 ; 0000 0375 }
                 ;
                 ;int ind_select(signed int ind_val){
                 ; 0000 0377 int ind_select(signed int ind_val){
                 _ind_select:
                 ; .FSTART _ind_select
                 ; 0000 0378 signed int out_val;
                 ; 0000 0379 if(ind_val>=90)out_val=1;
000ec2 93ba      	ST   -Y,R27
000ec3 93aa      	ST   -Y,R26
000ec4 931a      	ST   -Y,R17
000ec5 930a      	ST   -Y,R16
                 ;	ind_val -> Y+2
                 ;	out_val -> R16,R17
000ec6 81aa      	LDD  R26,Y+2
000ec7 81bb      	LDD  R27,Y+2+1
000ec8 35aa      	CPI  R26,LOW(0x5A)
000ec9 e0e0      	LDI  R30,HIGH(0x5A)
000eca 07be      	CPC  R27,R30
000ecb f014      	BRLT _0x310
                +
000ecc e001     +LDI R16 , LOW ( 1 )
000ecd e010     +LDI R17 , HIGH ( 1 )
                 	__GETWRN 16,17,1
                 ; 0000 037A if((ind_val>10)&(ind_val<90))out_val=(99-ind_val)/10+1;
                 _0x310:
000ece 81aa      	LDD  R26,Y+2
000ecf 81bb      	LDD  R27,Y+2+1
000ed0 e0ea      	LDI  R30,LOW(10)
000ed1 e0f0      	LDI  R31,HIGH(10)
000ed2 940e 1a27 	CALL __GTW12
000ed4 2e0e      	MOV  R0,R30
000ed5 e5ea      	LDI  R30,LOW(90)
000ed6 e0f0      	LDI  R31,HIGH(90)
000ed7 940e 1a21 	CALL __LTW12
000ed9 21e0      	AND  R30,R0
000eda f059      	BREQ _0x311
000edb e6e3      	LDI  R30,LOW(99)
000edc e0f0      	LDI  R31,HIGH(99)
000edd 1bea      	SUB  R30,R26
000ede 0bfb      	SBC  R31,R27
000edf 01df      	MOVW R26,R30
000ee0 e0ea      	LDI  R30,LOW(10)
000ee1 e0f0      	LDI  R31,HIGH(10)
000ee2 940e 1a45 	CALL __DIVW21
000ee4 9631      	ADIW R30,1
000ee5 018f      	MOVW R16,R30
                 ; 0000 037B if((ind_val<=10)&(ind_val>=0))out_val=10;
                 _0x311:
000ee6 81aa      	LDD  R26,Y+2
000ee7 81bb      	LDD  R27,Y+2+1
000ee8 e0ea      	LDI  R30,LOW(10)
000ee9 e0f0      	LDI  R31,HIGH(10)
000eea 940e 1a15 	CALL __LEW12
000eec 2e0e      	MOV  R0,R30
000eed e0e0      	LDI  R30,LOW(0)
000eee e0f0      	LDI  R31,HIGH(0)
000eef 940e 1a1b 	CALL __GEW12
000ef1 21e0      	AND  R30,R0
000ef2 f011      	BREQ _0x312
                +
000ef3 e00a     +LDI R16 , LOW ( 10 )
000ef4 e010     +LDI R17 , HIGH ( 10 )
                 	__GETWRN 16,17,10
                 ; 0000 037C if((ind_val<0)&(ind_val>-90))out_val=(100-ind_val)/10+1;
                 _0x312:
000ef5 81aa      	LDD  R26,Y+2
000ef6 81bb      	LDD  R27,Y+2+1
000ef7 e0e0      	LDI  R30,LOW(0)
000ef8 e0f0      	LDI  R31,HIGH(0)
000ef9 940e 1a21 	CALL __LTW12
000efb 2e0e      	MOV  R0,R30
000efc eae6      	LDI  R30,LOW(65446)
000efd efff      	LDI  R31,HIGH(65446)
000efe 940e 1a27 	CALL __GTW12
000f00 21e0      	AND  R30,R0
000f01 f059      	BREQ _0x313
000f02 e6e4      	LDI  R30,LOW(100)
000f03 e0f0      	LDI  R31,HIGH(100)
000f04 1bea      	SUB  R30,R26
000f05 0bfb      	SBC  R31,R27
000f06 01df      	MOVW R26,R30
000f07 e0ea      	LDI  R30,LOW(10)
000f08 e0f0      	LDI  R31,HIGH(10)
000f09 940e 1a45 	CALL __DIVW21
000f0b 9631      	ADIW R30,1
000f0c 018f      	MOVW R16,R30
                 ; 0000 037D if(ind_val<=-90)out_val=20;
                 _0x313:
000f0d 81aa      	LDD  R26,Y+2
000f0e 81bb      	LDD  R27,Y+2+1
000f0f eae6      	LDI  R30,LOW(65446)
000f10 efff      	LDI  R31,HIGH(65446)
000f11 17ea      	CP   R30,R26
000f12 07fb      	CPC  R31,R27
000f13 f014      	BRLT _0x314
                +
000f14 e104     +LDI R16 , LOW ( 20 )
000f15 e010     +LDI R17 , HIGH ( 20 )
                 	__GETWRN 16,17,20
                 ; 0000 037E return out_val;}
                 _0x314:
000f16 01f8      	MOVW R30,R16
000f17 8119      	LDD  R17,Y+1
000f18 8108      	LDD  R16,Y+0
000f19 9624      	ADIW R28,4
000f1a 9508      	RET
                 ; .FEND
                 ;
                 ;//int ind_select(signed int ind_val){
                 ;//signed int out_val;
                 ;//if(ind_val<=-90)out_val=1;
                 ;//if((ind_val<-9)&(ind_val>-90))out_val=(ind_val+100)/10+1;
                 ;//if((ind_val>-9)&(ind_val<0))out_val=10;
                 ;//if((ind_val>=0)&(ind_val<90))out_val=(ind_val+100)/10+1;
                 ;//if(ind_val>=90)out_val=20;
                 ;//return out_val;}
                 ;
                 ;void print_int(unsigned int int_val){
                 ; 0000 0389 void print_int(unsigned int int_val){
                 ; 0000 038A unsigned char char_val[3], dig_counter=0;
                 ; 0000 038B char_val[0]=int_val/100+0x30;
                 ;	int_val -> Y+4
                 ;	char_val -> Y+1
                 ;	dig_counter -> R17
                 ; 0000 038C int_val=int_val%100;
                 ; 0000 038D char_val[1]=int_val/10+0x30;
                 ; 0000 038E int_val=int_val%10;
                 ; 0000 038F char_val[2]=int_val+0x30;
                 ; 0000 0390 for (dig_counter=0;dig_counter<3;dig_counter++)putchar(char_val[dig_counter]);}
                 ;
                 ;void print_int5(unsigned int int_val){
                 ; 0000 0392 void print_int5(unsigned int int_val){
                 ; 0000 0393 unsigned char char_val[5], dig_counter=0;
                 ; 0000 0394 char_val[0]=int_val/10000+0x30;
                 ;	int_val -> Y+6
                 ;	char_val -> Y+1
                 ;	dig_counter -> R17
                 ; 0000 0395 int_val=int_val%10000;
                 ; 0000 0396 char_val[1]=int_val/1000+0x30;
                 ; 0000 0397 int_val=int_val%1000;
                 ; 0000 0398 char_val[2]=int_val/100+0x30;
                 ; 0000 0399 int_val=int_val%100;
                 ; 0000 039A char_val[3]=int_val/10+0x30;
                 ; 0000 039B int_val=int_val%10;
                 ; 0000 039C char_val[4]=int_val+0x30;
                 ; 0000 039D for (dig_counter=0;dig_counter<5;dig_counter++)putchar(char_val[dig_counter]);}
                 ;
                 ;
                 ;void terminal_commander(unsigned char RData, int mode){
                 ; 0000 03A0 void terminal_commander(unsigned char RData, int mode){
                 _terminal_commander:
                 ; .FSTART _terminal_commander
                 ; 0000 03A1 
                 ; 0000 03A2 if(ModbusMessage==62){EEPROM_write(eeAddressAverTimeV,AverTime_Value);EEPROM_write(eeAddressFreqQ,FrequencyQ);send_frequ ...
000f1b 93ba      	ST   -Y,R27
000f1c 93aa      	ST   -Y,R26
                 ;	RData -> Y+2
                 ;	mode -> Y+0
000f1d 91a0 05b7 	LDS  R26,_ModbusMessage
000f1f 91b0 05b8 	LDS  R27,_ModbusMessage+1
000f21 97de      	SBIW R26,62
000f22 f4b1      	BRNE _0x31B
000f23 e0e1      	LDI  R30,LOW(1537)
000f24 e0f6      	LDI  R31,HIGH(1537)
000f25 93fa      	ST   -Y,R31
000f26 93ea      	ST   -Y,R30
000f27 91a0 059f 	LDS  R26,_AverTime_Value
000f29 940e 0804 	CALL _EEPROM_write
000f2b e0e2      	LDI  R30,LOW(1538)
000f2c e0f6      	LDI  R31,HIGH(1538)
000f2d 93fa      	ST   -Y,R31
000f2e 93ea      	ST   -Y,R30
000f2f 91a0 05b5 	LDS  R26,_FrequencyQ
000f31 940e 0804 	CALL _EEPROM_write
000f33 dea5      	RCALL _send_frequency_value
000f34 e0e0      	LDI  R30,LOW(0)
000f35 93e0 05b7 	STS  _ModbusMessage,R30
000f37 93e0 05b8 	STS  _ModbusMessage+1,R30
                 ; 0000 03A3 if(ModbusMessage==63){EEPROM_write(eeAddressModBusAddr,ModBusAddress);ModbusMessage=0;}
                 _0x31B:
000f39 91a0 05b7 	LDS  R26,_ModbusMessage
000f3b 91b0 05b8 	LDS  R27,_ModbusMessage+1
000f3d 97df      	SBIW R26,63
000f3e f469      	BRNE _0x31C
000f3f e0e0      	LDI  R30,LOW(1536)
000f40 e0f6      	LDI  R31,HIGH(1536)
000f41 93fa      	ST   -Y,R31
000f42 93ea      	ST   -Y,R30
000f43 91a0 058f 	LDS  R26,_ModBusAddress
000f45 940e 0804 	CALL _EEPROM_write
000f47 e0e0      	LDI  R30,LOW(0)
000f48 93e0 05b7 	STS  _ModbusMessage,R30
000f4a 93e0 05b8 	STS  _ModbusMessage+1,R30
                 ; 0000 03A4 if(ModbusMessage==64){EEPROM_write(eeAddressMINSKZH,(unsigned char)(minimal_SKZ_val>>8));EEPROM_write(eeAddressMINSKZL,( ...
                 _0x31C:
000f4c 91a0 05b7 	LDS  R26,_ModbusMessage
000f4e 91b0 05b8 	LDS  R27,_ModbusMessage+1
000f50 34a0      	CPI  R26,LOW(0x40)
000f51 e0e0      	LDI  R30,HIGH(0x40)
000f52 07be      	CPC  R27,R30
000f53 f4b9      	BRNE _0x31D
000f54 e0e3      	LDI  R30,LOW(1539)
000f55 e0f6      	LDI  R31,HIGH(1539)
000f56 93fa      	ST   -Y,R31
000f57 93ea      	ST   -Y,R30
000f58 91e0 0592 	LDS  R30,_minimal_SKZ_val+1
000f5a 2fae      	MOV  R26,R30
000f5b 940e 0804 	CALL _EEPROM_write
000f5d e0e4      	LDI  R30,LOW(1540)
000f5e e0f6      	LDI  R31,HIGH(1540)
000f5f 93fa      	ST   -Y,R31
000f60 93ea      	ST   -Y,R30
000f61 91a0 0591 	LDS  R26,_minimal_SKZ_val
000f63 940e 0804 	CALL _EEPROM_write
000f65 de98      	RCALL _send_SKZMIN_value
000f66 e0e0      	LDI  R30,LOW(0)
000f67 93e0 05b7 	STS  _ModbusMessage,R30
000f69 93e0 05b8 	STS  _ModbusMessage+1,R30
                 ; 0000 03A5 if(ModbusMessage==65){EEPROM_write(eeAddressMINOPLH,(unsigned char)(minimal_object_enabled_level>>8));EEPROM_write(eeAdd ...
                 _0x31D:
000f6b 91a0 05b7 	LDS  R26,_ModbusMessage
000f6d 91b0 05b8 	LDS  R27,_ModbusMessage+1
000f6f 34a1      	CPI  R26,LOW(0x41)
000f70 e0e0      	LDI  R30,HIGH(0x41)
000f71 07be      	CPC  R27,R30
000f72 f4b9      	BRNE _0x31E
000f73 e0e6      	LDI  R30,LOW(1542)
000f74 e0f6      	LDI  R31,HIGH(1542)
000f75 93fa      	ST   -Y,R31
000f76 93ea      	ST   -Y,R30
000f77 91e0 0594 	LDS  R30,_minimal_object_enabled_level+1
000f79 2fae      	MOV  R26,R30
000f7a 940e 0804 	CALL _EEPROM_write
000f7c e0e7      	LDI  R30,LOW(1543)
000f7d e0f6      	LDI  R31,HIGH(1543)
000f7e 93fa      	ST   -Y,R31
000f7f 93ea      	ST   -Y,R30
000f80 91a0 0593 	LDS  R26,_minimal_object_enabled_level
000f82 940e 0804 	CALL _EEPROM_write
000f84 deae      	RCALL _send_minimal_operat_val
000f85 e0e0      	LDI  R30,LOW(0)
000f86 93e0 05b7 	STS  _ModbusMessage,R30
000f88 93e0 05b8 	STS  _ModbusMessage+1,R30
                 ; 0000 03A6 new_message=0;
                 _0x31E:
000f8a 94e8      	CLT
000f8b f823      	BLD  R2,3
                 ; 0000 03A7 }
000f8c 9623      	ADIW R28,3
000f8d 9508      	RET
                 ; .FEND
                 ;
                 ;//{crc_master=0xFFFF;mov_buf_master(0x01);mov_buf_master(0x06);mov_buf_master(0x00);mov_buf_master(0x82);mov_buf_master( ...
                 ;
                 ;
                 ;
                 ;void main(void)
                 ; 0000 03AE {
                 _main:
                 ; .FSTART _main
                 ; 0000 03AF //signed int AverSKZ_Value=0;
                 ; 0000 03B0 int k=0,no_press=1;
                 ; 0000 03B1 signed int x1,x2;
                 ; 0000 03B2 char disabling_counter=0,object_state_tmp;
                 ; 0000 03B3 //char n;
                 ; 0000 03B4 float y;
                 ; 0000 03B5 //,reg1,reg2,reg;
                 ; 0000 03B6 DDRA=0b11111111;
000f8e 9728      	SBIW R28,8
000f8f e0e0      	LDI  R30,LOW(0)
000f90 83ed      	STD  Y+5,R30
                 ;	k -> R16,R17
                 ;	no_press -> R18,R19
                 ;	x1 -> R20,R21
                 ;	x2 -> Y+6
                 ;	disabling_counter -> Y+5
                 ;	object_state_tmp -> Y+4
                 ;	y -> Y+0
                +
000f91 e000     +LDI R16 , LOW ( 0 )
000f92 e010     +LDI R17 , HIGH ( 0 )
                 	__GETWRN 16,17,0
                +
000f93 e021     +LDI R18 , LOW ( 1 )
000f94 e030     +LDI R19 , HIGH ( 1 )
                 	__GETWRN 18,19,1
000f95 efef      	LDI  R30,LOW(255)
000f96 bbea      	OUT  0x1A,R30
                 ; 0000 03B7 PORTA=0b00000000;
000f97 e0e0      	LDI  R30,LOW(0)
000f98 bbeb      	OUT  0x1B,R30
                 ; 0000 03B8 //DDRB=0b00001100;PORTB=0b00000000;
                 ; 0000 03B9 DDRC=0b11011111;PORTC=0b00100000;
000f99 edef      	LDI  R30,LOW(223)
000f9a bbe4      	OUT  0x14,R30
000f9b e2e0      	LDI  R30,LOW(32)
000f9c bbe5      	OUT  0x15,R30
                 ; 0000 03BA DDRD=0b00011000;PORTD=0b10000000;
000f9d e1e8      	LDI  R30,LOW(24)
000f9e bbe1      	OUT  0x11,R30
000f9f e8e0      	LDI  R30,LOW(128)
000fa0 bbe2      	OUT  0x12,R30
                 ; 0000 03BB //PORTE=0b00000000;DDRE=0b00000110;
                 ; 0000 03BC DDRF=0b11111111;PORTF=0b00000000;
000fa1 efef      	LDI  R30,LOW(255)
000fa2 93e0 0061 	STS  97,R30
000fa4 e0e0      	LDI  R30,LOW(0)
000fa5 93e0 0062 	STS  98,R30
                 ; 0000 03BD DDRG=0b00000000;PORTG=0b00000000;
000fa7 93e0 0064 	STS  100,R30
000fa9 93e0 0065 	STS  101,R30
                 ; 0000 03BE UCSR0A=0x00;UCSR0B=0xD8;UCSR0C=0x06;UBRR0H=0x00;UBRR0L=0x2F;
000fab b9eb      	OUT  0xB,R30
000fac ede8      	LDI  R30,LOW(216)
000fad b9ea      	OUT  0xA,R30
000fae e0e6      	LDI  R30,LOW(6)
000faf 93e0 0095 	STS  149,R30
000fb1 e0e0      	LDI  R30,LOW(0)
000fb2 93e0 0090 	STS  144,R30
000fb4 e2ef      	LDI  R30,LOW(47)
000fb5 b9e9      	OUT  0x9,R30
                 ; 0000 03BF UCSR1A=0x00;UCSR1B=0xD8;UCSR1C=0x06;UBRR1H=0x00;UBRR1L=0x2F;
000fb6 e0e0      	LDI  R30,LOW(0)
000fb7 93e0 009b 	STS  155,R30
000fb9 ede8      	LDI  R30,LOW(216)
000fba 93e0 009a 	STS  154,R30
000fbc e0e6      	LDI  R30,LOW(6)
000fbd 93e0 009d 	STS  157,R30
000fbf e0e0      	LDI  R30,LOW(0)
000fc0 93e0 0098 	STS  152,R30
000fc2 e2ef      	LDI  R30,LOW(47)
000fc3 93e0 0099 	STS  153,R30
                 ; 0000 03C0 DDRC.0=1;
000fc5 9aa0      	SBI  0x14,0
                 ; 0000 03C1 ACSR=0x80;SFIOR=0x00;ASSR=0x00;
000fc6 e8e0      	LDI  R30,LOW(128)
000fc7 b9e8      	OUT  0x8,R30
000fc8 e0e0      	LDI  R30,LOW(0)
000fc9 bde0      	OUT  0x20,R30
000fca bfe0      	OUT  0x30,R30
                 ; 0000 03C2 TCCR0=0x02;TCNT0=0x00;OCR0=0x00;
000fcb e0e2      	LDI  R30,LOW(2)
000fcc bfe3      	OUT  0x33,R30
000fcd e0e0      	LDI  R30,LOW(0)
000fce bfe2      	OUT  0x32,R30
000fcf bfe1      	OUT  0x31,R30
                 ; 0000 03C3 DDRB=0x37;
000fd0 e3e7      	LDI  R30,LOW(55)
000fd1 bbe7      	OUT  0x17,R30
                 ; 0000 03C4 PORTB=0x31;   //CS
000fd2 e3e1      	LDI  R30,LOW(49)
000fd3 bbe8      	OUT  0x18,R30
                 ; 0000 03C5 //PORTB.5=1;   //CLR
                 ; 0000 03C6 // SPI initialization
                 ; 0000 03C7 // SPI Type: Master
                 ; 0000 03C8 // SPI Clock Rate: 62,500 kHz
                 ; 0000 03C9 // SPI Clock Phase: Cycle Start
                 ; 0000 03CA // SPI Clock Polarity: High
                 ; 0000 03CB // SPI Data Order: LSB First
                 ; 0000 03CC SPCR=0xDE;
000fd4 edee      	LDI  R30,LOW(222)
000fd5 b9ed      	OUT  0xD,R30
                 ; 0000 03CD SPSR=0x00;
000fd6 e0e0      	LDI  R30,LOW(0)
000fd7 b9ee      	OUT  0xE,R30
                 ; 0000 03CE // Clear the SPI interrupt flag
                 ; 0000 03CF #asm
                 ; 0000 03D0     in   r30,spsr
000fd8 b1ee          in   r30,spsr
                 ; 0000 03D1     in   r30,spdr
000fd9 b1ef          in   r30,spdr
                 ; 0000 03D2 #endasm
                 ; 0000 03D3 //led(0);
                 ; 0000 03D4 //delay_ms(100);
                 ; 0000 03D5 // led(21);
                 ; 0000 03D6 ClearBuf_slave;
000fda e0e0      	LDI  R30,LOW(0)
000fdb 93e0 07c3 	STS  _rx_buffer_slave,R30
                +
000fdd 93e0 07c4+STS _rx_buffer_slave + ( 1 ) , R30
                 	__PUTB1MN _rx_buffer_slave,1
                +
000fdf 93e0 07c5+STS _rx_buffer_slave + ( 2 ) , R30
                 	__PUTB1MN _rx_buffer_slave,2
                +
000fe1 93e0 07c6+STS _rx_buffer_slave + ( 3 ) , R30
                 	__PUTB1MN _rx_buffer_slave,3
                +
000fe3 93e0 07c7+STS _rx_buffer_slave + ( 4 ) , R30
                 	__PUTB1MN _rx_buffer_slave,4
                +
000fe5 93e0 07c8+STS _rx_buffer_slave + ( 5 ) , R30
                 	__PUTB1MN _rx_buffer_slave,5
                +
000fe7 93e0 07c9+STS _rx_buffer_slave + ( 6 ) , R30
                 	__PUTB1MN _rx_buffer_slave,6
                +
000fe9 93e0 07ca+STS _rx_buffer_slave + ( 7 ) , R30
                 	__PUTB1MN _rx_buffer_slave,7
                +
000feb 93e0 07cb+STS _rx_buffer_slave + ( 8 ) , R30
                 	__PUTB1MN _rx_buffer_slave,8
                +
000fed 93e0 07cc+STS _rx_buffer_slave + ( 9 ) , R30
                 	__PUTB1MN _rx_buffer_slave,9
                +
000fef 93e0 07cd+STS _rx_buffer_slave + ( 10 ) , R30
                 	__PUTB1MN _rx_buffer_slave,10
                 ; 0000 03D7 
                 ; 0000 03D8 TIMSK=0x01;//ETIMSK=0x00;
000ff1 e0e1      	LDI  R30,LOW(1)
000ff2 bfe7      	OUT  0x37,R30
                 ; 0000 03D9 //TCCR3B=0x04;ETIFR=0x04;ETIMSK=0x04;TCCR3A=0x00;
                 ; 0000 03DA rx_c_master=0;rx_m_master=0;
000ff3 94e8      	CLT
000ff4 f822      	BLD  R2,2
000ff5 f821      	BLD  R2,1
                 ; 0000 03DB rx_wr_index_master=0;rx_counter_master=0;
000ff6 e0e0      	LDI  R30,LOW(0)
000ff7 93e0 0595 	STS  _rx_wr_index_master,R30
000ff9 93e0 0596 	STS  _rx_counter_master,R30
                 ; 0000 03DC rx_c_slave=0;rx_m_slave=0;
000ffb f835      	BLD  R3,5
000ffc f834      	BLD  R3,4
                 ; 0000 03DD rx_wr_index_slave=0;rx_counter_slave=0;
000ffd 93e0 0844 	STS  _rx_wr_index_slave,R30
000fff 93e0 0845 	STS  _rx_counter_slave,R30
                 ; 0000 03DE //        send_save_skz1;
                 ; 0000 03DF //        whait_read;
                 ; 0000 03E0 //        send_save_skz2;
                 ; 0000 03E1 //        whait_read;
                 ; 0000 03E2 Led_Intro1_on;
001001 9adc      	SBI  0x1B,4
001002 9add      	SBI  0x1B,5
001003 9ade      	SBI  0x1B,6
001004 9adf      	SBI  0x1B,7
001005 9aae      	SBI  0x15,6
001006 9aaf      	SBI  0x15,7
001007 9aac      	SBI  0x15,4
001008 9aab      	SBI  0x15,3
001009 9aaa      	SBI  0x15,2
00100a 9aa9      	SBI  0x15,1
                 ; 0000 03E3 delay_ms(500);
00100b efa4      	LDI  R26,LOW(500)
00100c e0b1      	LDI  R27,HIGH(500)
00100d 940e 1844 	CALL _delay_ms
                 ; 0000 03E4 Led_Intro2_on;
00100f 91e0 0062 	LDS  R30,98
001011 61e0      	ORI  R30,0x10
001012 93e0 0062 	STS  98,R30
001014 9ada      	SBI  0x1B,2
001015 91e0 0062 	LDS  R30,98
001017 60e4      	ORI  R30,4
001018 93e0 0062 	STS  98,R30
00101a 91e0 0062 	LDS  R30,98
00101c 60e1      	ORI  R30,1
00101d 93e0 0062 	STS  98,R30
00101f 91e0 0062 	LDS  R30,98
001021 64e0      	ORI  R30,0x40
001022 93e0 0062 	STS  98,R30
001024 91e0 0062 	LDS  R30,98
001026 60e2      	ORI  R30,2
001027 93e0 0062 	STS  98,R30
001029 91e0 0062 	LDS  R30,98
00102b 60e8      	ORI  R30,8
00102c 93e0 0062 	STS  98,R30
00102e 91e0 0062 	LDS  R30,98
001030 62e0      	ORI  R30,0x20
001031 93e0 0062 	STS  98,R30
001033 91e0 0062 	LDS  R30,98
001035 68e0      	ORI  R30,0x80
001036 93e0 0062 	STS  98,R30
001038 9ad8      	SBI  0x1B,0
001039 9ad9      	SBI  0x1B,1
00103a 9adb      	SBI  0x1B,3
00103b 98dc      	CBI  0x1B,4
00103c 98dd      	CBI  0x1B,5
00103d 98de      	CBI  0x1B,6
00103e 98df      	CBI  0x1B,7
00103f 98ae      	CBI  0x15,6
001040 98af      	CBI  0x15,7
001041 98ac      	CBI  0x15,4
001042 98ab      	CBI  0x15,3
001043 98aa      	CBI  0x15,2
001044 98a9      	CBI  0x15,1
                 ; 0000 03E5 delay_ms(500);
001045 efa4      	LDI  R26,LOW(500)
001046 e0b1      	LDI  R27,HIGH(500)
001047 940e 1844 	CALL _delay_ms
                 ; 0000 03E6 Led_Intro2_off;
001049 91e0 0062 	LDS  R30,98
00104b 7eef      	ANDI R30,0xEF
00104c 93e0 0062 	STS  98,R30
00104e 98da      	CBI  0x1B,2
00104f 91e0 0062 	LDS  R30,98
001051 7feb      	ANDI R30,0xFB
001052 93e0 0062 	STS  98,R30
001054 91e0 0062 	LDS  R30,98
001056 7fee      	ANDI R30,0xFE
001057 93e0 0062 	STS  98,R30
001059 91e0 0062 	LDS  R30,98
00105b 7bef      	ANDI R30,0xBF
00105c 93e0 0062 	STS  98,R30
00105e 91e0 0062 	LDS  R30,98
001060 7fed      	ANDI R30,0xFD
001061 93e0 0062 	STS  98,R30
001063 91e0 0062 	LDS  R30,98
001065 7fe7      	ANDI R30,0XF7
001066 93e0 0062 	STS  98,R30
001068 91e0 0062 	LDS  R30,98
00106a 7def      	ANDI R30,0xDF
00106b 93e0 0062 	STS  98,R30
00106d 91e0 0062 	LDS  R30,98
00106f 77ef      	ANDI R30,0x7F
001070 93e0 0062 	STS  98,R30
001072 98d8      	CBI  0x1B,0
001073 98d9      	CBI  0x1B,1
001074 98db      	CBI  0x1B,3
001075 98dc      	CBI  0x1B,4
001076 98dd      	CBI  0x1B,5
001077 98de      	CBI  0x1B,6
001078 98df      	CBI  0x1B,7
001079 98ae      	CBI  0x15,6
00107a 98af      	CBI  0x15,7
00107b 98ac      	CBI  0x15,4
00107c 98ab      	CBI  0x15,3
00107d 98aa      	CBI  0x15,2
00107e 98a9      	CBI  0x15,1
                 ; 0000 03E7 //delay_ms(200);
                 ; 0000 03E8 
                 ; 0000 03E9 #asm("sei")
00107f 9478      	sei
                 ; 0000 03EA //delay_ms(200);
                 ; 0000 03EB 
                 ; 0000 03EC CalibrFlag=EEPROM_read(eeAddrCalibrFlag);
001080 efaf      	LDI  R26,LOW(1279)
001081 e0b4      	LDI  R27,HIGH(1279)
001082 940e 0811 	CALL _EEPROM_read
001084 93e0 058b 	STS  _CalibrFlag,R30
                 ; 0000 03ED if(EEPROM_read(eeAddressAverTimeV)!=0xff)AverTime_Value=EEPROM_read(eeAddressAverTimeV);
001086 e0a1      	LDI  R26,LOW(1537)
001087 e0b6      	LDI  R27,HIGH(1537)
001088 940e 0811 	CALL _EEPROM_read
00108a 3fef      	CPI  R30,LOW(0xFF)
00108b f049      	BREQ _0x36D
00108c e0a1      	LDI  R26,LOW(1537)
00108d e0b6      	LDI  R27,HIGH(1537)
00108e 940e 0811 	CALL _EEPROM_read
001090 e0f0      	LDI  R31,0
001091 93e0 059f 	STS  _AverTime_Value,R30
001093 93f0 05a0 	STS  _AverTime_Value+1,R31
                 ; 0000 03EE if(EEPROM_read(eeAddressFreqQ)!=0xff)FrequencyQ=EEPROM_read(eeAddressFreqQ);
                 _0x36D:
001095 e0a2      	LDI  R26,LOW(1538)
001096 e0b6      	LDI  R27,HIGH(1538)
001097 940e 0811 	CALL _EEPROM_read
001099 3fef      	CPI  R30,LOW(0xFF)
00109a f049      	BREQ _0x36E
00109b e0a2      	LDI  R26,LOW(1538)
00109c e0b6      	LDI  R27,HIGH(1538)
00109d 940e 0811 	CALL _EEPROM_read
00109f e0f0      	LDI  R31,0
0010a0 93e0 05b5 	STS  _FrequencyQ,R30
0010a2 93f0 05b6 	STS  _FrequencyQ+1,R31
                 ; 0000 03EF if(EEPROM_read(eeAddressModBusAddr)!=0xff)ModBusAddress=EEPROM_read(eeAddressModBusAddr);
                 _0x36E:
0010a4 e0a0      	LDI  R26,LOW(1536)
0010a5 e0b6      	LDI  R27,HIGH(1536)
0010a6 940e 0811 	CALL _EEPROM_read
0010a8 3fef      	CPI  R30,LOW(0xFF)
0010a9 f049      	BREQ _0x36F
0010aa e0a0      	LDI  R26,LOW(1536)
0010ab e0b6      	LDI  R27,HIGH(1536)
0010ac 940e 0811 	CALL _EEPROM_read
0010ae e0f0      	LDI  R31,0
0010af 93e0 058f 	STS  _ModBusAddress,R30
0010b1 93f0 0590 	STS  _ModBusAddress+1,R31
                 ; 0000 03F0 if(EEPROM_read(eeAddressMINSKZH)!=0xff&EEPROM_read(eeAddressMINSKZL)!=0xff){minimal_SKZ_val=(unsigned int)(EEPROM_read(e ...
                 _0x36F:
0010b3 e0a3      	LDI  R26,LOW(1539)
0010b4 e0b6      	LDI  R27,HIGH(1539)
0010b5 940e 0811 	CALL _EEPROM_read
0010b7 efaf      	LDI  R26,LOW(255)
0010b8 940e 1a04 	CALL __NEB12
0010ba 93ef      	PUSH R30
0010bb e0a4      	LDI  R26,LOW(1540)
0010bc e0b6      	LDI  R27,HIGH(1540)
0010bd 940e 0811 	CALL _EEPROM_read
0010bf efaf      	LDI  R26,LOW(255)
0010c0 940e 1a04 	CALL __NEB12
0010c2 91af      	POP  R26
0010c3 23ea      	AND  R30,R26
0010c4 f0c9      	BREQ _0x370
0010c5 e0a3      	LDI  R26,LOW(1539)
0010c6 e0b6      	LDI  R27,HIGH(1539)
0010c7 940e 0811 	CALL _EEPROM_read
0010c9 2ffe      	MOV  R31,R30
0010ca e0e0      	LDI  R30,0
0010cb 93e0 0591 	STS  _minimal_SKZ_val,R30
0010cd 93f0 0592 	STS  _minimal_SKZ_val+1,R31
0010cf e0a4      	LDI  R26,LOW(1540)
0010d0 e0b6      	LDI  R27,HIGH(1540)
0010d1 940e 0811 	CALL _EEPROM_read
0010d3 e0f0      	LDI  R31,0
0010d4 91a0 0591 	LDS  R26,_minimal_SKZ_val
0010d6 91b0 0592 	LDS  R27,_minimal_SKZ_val+1
0010d8 0fea      	ADD  R30,R26
0010d9 1ffb      	ADC  R31,R27
0010da 93e0 0591 	STS  _minimal_SKZ_val,R30
0010dc 93f0 0592 	STS  _minimal_SKZ_val+1,R31
                 ; 0000 03F1 if(EEPROM_read(eeAddressMINOPLH)!=0xff&EEPROM_read(eeAddressMINOPLL)!=0xff){minimal_object_enabled_level=(unsigned int)( ...
                 _0x370:
0010de e0a6      	LDI  R26,LOW(1542)
0010df e0b6      	LDI  R27,HIGH(1542)
0010e0 940e 0811 	CALL _EEPROM_read
0010e2 efaf      	LDI  R26,LOW(255)
0010e3 940e 1a04 	CALL __NEB12
0010e5 93ef      	PUSH R30
0010e6 e0a7      	LDI  R26,LOW(1543)
0010e7 e0b6      	LDI  R27,HIGH(1543)
0010e8 940e 0811 	CALL _EEPROM_read
0010ea efaf      	LDI  R26,LOW(255)
0010eb 940e 1a04 	CALL __NEB12
0010ed 91af      	POP  R26
0010ee 23ea      	AND  R30,R26
0010ef f0c9      	BREQ _0x371
0010f0 e0a6      	LDI  R26,LOW(1542)
0010f1 e0b6      	LDI  R27,HIGH(1542)
0010f2 940e 0811 	CALL _EEPROM_read
0010f4 2ffe      	MOV  R31,R30
0010f5 e0e0      	LDI  R30,0
0010f6 93e0 0593 	STS  _minimal_object_enabled_level,R30
0010f8 93f0 0594 	STS  _minimal_object_enabled_level+1,R31
0010fa e0a7      	LDI  R26,LOW(1543)
0010fb e0b6      	LDI  R27,HIGH(1543)
0010fc 940e 0811 	CALL _EEPROM_read
0010fe e0f0      	LDI  R31,0
0010ff 91a0 0593 	LDS  R26,_minimal_object_enabled_level
001101 91b0 0594 	LDS  R27,_minimal_object_enabled_level+1
001103 0fea      	ADD  R30,R26
001104 1ffb      	ADC  R31,R27
001105 93e0 0593 	STS  _minimal_object_enabled_level,R30
001107 93f0 0594 	STS  _minimal_object_enabled_level+1,R31
                 ; 0000 03F2 if((AverTime_Value!=0)&(red==0))AvTimer_on;
                 _0x371:
001109 91a0 059f 	LDS  R26,_AverTime_Value
00110b 91b0 05a0 	LDS  R27,_AverTime_Value+1
00110d e0e0      	LDI  R30,LOW(0)
00110e e0f0      	LDI  R31,HIGH(0)
00110f 940e 1a0f 	CALL __NEW12
001111 2e0e      	MOV  R0,R30
001112 91a0 05bb 	LDS  R26,_red
001114 91b0 05bc 	LDS  R27,_red+1
001116 e0e0      	LDI  R30,LOW(0)
001117 e0f0      	LDI  R31,HIGH(0)
001118 940e 1a09 	CALL __EQW12
00111a 21e0      	AND  R30,R0
00111b f079      	BREQ _0x372
00111c e0e0      	LDI  R30,LOW(0)
00111d 93e0 008b 	STS  139,R30
00111f e0e4      	LDI  R30,LOW(4)
001120 93e0 008a 	STS  138,R30
001122 e8e1      	LDI  R30,LOW(129)
001123 93e0 0089 	STS  137,R30
001125 e0eb      	LDI  R30,LOW(11)
001126 93e0 0088 	STS  136,R30
001128 e0e4      	LDI  R30,LOW(4)
001129 93e0 007d 	STS  125,R30
                 _0x372:
                 ; 0000 03F3 
                 ; 0000 03F4 //go_main_menu();
                 ; 0000 03F5 //TX_slave_on;printf("AverSKZ_Value=%d,skz_counter=%d testval=%e\r\n",AverSKZ_Value,SKZread_counter,testval);TX_slave_of ...
                 ; 0000 03F6 //led(0);
                 ; 0000 03F7 send_frequency_value();
00112b dcad      	RCALL _send_frequency_value
                 ; 0000 03F8  whait_read;
00112c e0e0      	LDI  R30,LOW(0)
00112d e0f0      	LDI  R31,HIGH(0)
00112e bdfd      	OUT  0x2C+1,R31
00112f bdec      	OUT  0x2C,R30
001130 e0e3      	LDI  R30,LOW(3)
001131 bdee      	OUT  0x2E,R30
                 _0x373:
001132 b7e6      	IN   R30,0x36
001133 ffe2      	SBRS R30,2
001134 cffd      	RJMP _0x373
001135 e0e0      	LDI  R30,LOW(0)
001136 bdee      	OUT  0x2E,R30
001137 b7e6      	IN   R30,0x36
001138 bfe6      	OUT  0x36,R30
                 ; 0000 03F9 
                 ; 0000 03FA  //delay_ms(65);
                 ; 0000 03FB  rx_c_master=0;rx_m_master=0;
001139 94e8      	CLT
00113a f822      	BLD  R2,2
00113b f821      	BLD  R2,1
                 ; 0000 03FC  rx_wr_index_master=0;rx_counter_master=0;
00113c e0e0      	LDI  R30,LOW(0)
00113d 93e0 0595 	STS  _rx_wr_index_master,R30
00113f 93e0 0596 	STS  _rx_counter_master,R30
                 ; 0000 03FD ClearBuf_master;
001141 93e0 050a 	STS  _rx_buffer_master,R30
                +
001143 93e0 050b+STS _rx_buffer_master + ( 1 ) , R30
                 	__PUTB1MN _rx_buffer_master,1
                +
001145 93e0 050c+STS _rx_buffer_master + ( 2 ) , R30
                 	__PUTB1MN _rx_buffer_master,2
                +
001147 93e0 050d+STS _rx_buffer_master + ( 3 ) , R30
                 	__PUTB1MN _rx_buffer_master,3
                +
001149 93e0 050e+STS _rx_buffer_master + ( 4 ) , R30
                 	__PUTB1MN _rx_buffer_master,4
                +
00114b 93e0 050f+STS _rx_buffer_master + ( 5 ) , R30
                 	__PUTB1MN _rx_buffer_master,5
                +
00114d 93e0 0510+STS _rx_buffer_master + ( 6 ) , R30
                 	__PUTB1MN _rx_buffer_master,6
                +
00114f 93e0 0511+STS _rx_buffer_master + ( 7 ) , R30
                 	__PUTB1MN _rx_buffer_master,7
                +
001151 93e0 0512+STS _rx_buffer_master + ( 8 ) , R30
                 	__PUTB1MN _rx_buffer_master,8
                +
001153 93e0 0513+STS _rx_buffer_master + ( 9 ) , R30
                 	__PUTB1MN _rx_buffer_master,9
                 ; 0000 03FE  send_SKZMIN_value();
001155 dca8      	RCALL _send_SKZMIN_value
                 ; 0000 03FF rx_c_master=0;rx_m_master=0;
001156 94e8      	CLT
001157 f822      	BLD  R2,2
001158 f821      	BLD  R2,1
                 ; 0000 0400  rx_wr_index_master=0;rx_counter_master=0;
001159 e0e0      	LDI  R30,LOW(0)
00115a 93e0 0595 	STS  _rx_wr_index_master,R30
00115c 93e0 0596 	STS  _rx_counter_master,R30
                 ; 0000 0401 ClearBuf_master;
00115e 93e0 050a 	STS  _rx_buffer_master,R30
                +
001160 93e0 050b+STS _rx_buffer_master + ( 1 ) , R30
                 	__PUTB1MN _rx_buffer_master,1
                +
001162 93e0 050c+STS _rx_buffer_master + ( 2 ) , R30
                 	__PUTB1MN _rx_buffer_master,2
                +
001164 93e0 050d+STS _rx_buffer_master + ( 3 ) , R30
                 	__PUTB1MN _rx_buffer_master,3
                +
001166 93e0 050e+STS _rx_buffer_master + ( 4 ) , R30
                 	__PUTB1MN _rx_buffer_master,4
                +
001168 93e0 050f+STS _rx_buffer_master + ( 5 ) , R30
                 	__PUTB1MN _rx_buffer_master,5
                +
00116a 93e0 0510+STS _rx_buffer_master + ( 6 ) , R30
                 	__PUTB1MN _rx_buffer_master,6
                +
00116c 93e0 0511+STS _rx_buffer_master + ( 7 ) , R30
                 	__PUTB1MN _rx_buffer_master,7
                +
00116e 93e0 0512+STS _rx_buffer_master + ( 8 ) , R30
                 	__PUTB1MN _rx_buffer_master,8
                +
001170 93e0 0513+STS _rx_buffer_master + ( 9 ) , R30
                 	__PUTB1MN _rx_buffer_master,9
                 ; 0000 0402  whait_read;
001172 e0e0      	LDI  R30,LOW(0)
001173 e0f0      	LDI  R31,HIGH(0)
001174 bdfd      	OUT  0x2C+1,R31
001175 bdec      	OUT  0x2C,R30
001176 e0e3      	LDI  R30,LOW(3)
001177 bdee      	OUT  0x2E,R30
                 _0x376:
001178 b7e6      	IN   R30,0x36
001179 ffe2      	SBRS R30,2
00117a cffd      	RJMP _0x376
00117b e0e0      	LDI  R30,LOW(0)
00117c bdee      	OUT  0x2E,R30
00117d b7e6      	IN   R30,0x36
00117e bfe6      	OUT  0x36,R30
                 ; 0000 0403 send_minimal_operat_val();
00117f dcb3      	RCALL _send_minimal_operat_val
                 ; 0000 0404  whait_read;
001180 e0e0      	LDI  R30,LOW(0)
001181 e0f0      	LDI  R31,HIGH(0)
001182 bdfd      	OUT  0x2C+1,R31
001183 bdec      	OUT  0x2C,R30
001184 e0e3      	LDI  R30,LOW(3)
001185 bdee      	OUT  0x2E,R30
                 _0x379:
001186 b7e6      	IN   R30,0x36
001187 ffe2      	SBRS R30,2
001188 cffd      	RJMP _0x379
001189 e0e0      	LDI  R30,LOW(0)
00118a bdee      	OUT  0x2E,R30
00118b b7e6      	IN   R30,0x36
00118c bfe6      	OUT  0x36,R30
                 ; 0000 0405  //delay_ms(65);
                 ; 0000 0406 SKZ_1=0;SKZ_2=0;
00118d 2488      	CLR  R8
00118e 2499      	CLR  R9
00118f 24aa      	CLR  R10
001190 24bb      	CLR  R11
                 ; 0000 0407 if(CalibrFlag==1){
001191 91a0 058b 	LDS  R26,_CalibrFlag
001193 30a1      	CPI  R26,LOW(0x1)
001194 f009      	BREQ PC+2
001195 c0a1      	RJMP _0x37C
                 ; 0000 0408 if(EEPROM_read(eeAddressSKZ1H)!=0xff&EEPROM_read(eeAddressSKZ1L)!=0xff)
001196 e0a0      	LDI  R26,LOW(1024)
001197 e0b4      	LDI  R27,HIGH(1024)
001198 940e 0811 	CALL _EEPROM_read
00119a efaf      	LDI  R26,LOW(255)
00119b 940e 1a04 	CALL __NEB12
00119d 93ef      	PUSH R30
00119e e0a1      	LDI  R26,LOW(1025)
00119f e0b4      	LDI  R27,HIGH(1025)
0011a0 940e 0811 	CALL _EEPROM_read
0011a2 efaf      	LDI  R26,LOW(255)
0011a3 940e 1a04 	CALL __NEB12
0011a5 91af      	POP  R26
0011a6 23ea      	AND  R30,R26
0011a7 f091      	BREQ _0x37D
                 ; 0000 0409     {            //        ηΰγπσζΰεμ ΡΚΗ1 θ ΡΚΗ2 θη εεοπξμ
                 ; 0000 040A     SKZ_1 = ((unsigned int)EEPROM_read(eeAddressSKZ1H)<<8)+EEPROM_read(eeAddressSKZ1L);
0011a8 e0a0      	LDI  R26,LOW(1024)
0011a9 e0b4      	LDI  R27,HIGH(1024)
0011aa 940e 0811 	CALL _EEPROM_read
0011ac 2ffe      	MOV  R31,R30
0011ad e0e0      	LDI  R30,0
0011ae 93ff      	PUSH R31
0011af 93ef      	PUSH R30
0011b0 e0a1      	LDI  R26,LOW(1025)
0011b1 e0b4      	LDI  R27,HIGH(1025)
0011b2 940e 0811 	CALL _EEPROM_read
0011b4 e0f0      	LDI  R31,0
0011b5 91af      	POP  R26
0011b6 91bf      	POP  R27
0011b7 0fea      	ADD  R30,R26
0011b8 1ffb      	ADC  R31,R27
0011b9 014f      	MOVW R8,R30
                 ; 0000 040B     }
                 ; 0000 040C if(EEPROM_read(eeAddressSKZ2H)!=0xff&EEPROM_read(eeAddressSKZ2L)!=0xff){
                 _0x37D:
0011ba e0a2      	LDI  R26,LOW(1026)
0011bb e0b4      	LDI  R27,HIGH(1026)
0011bc 940e 0811 	CALL _EEPROM_read
0011be efaf      	LDI  R26,LOW(255)
0011bf 940e 1a04 	CALL __NEB12
0011c1 93ef      	PUSH R30
0011c2 e0a3      	LDI  R26,LOW(1027)
0011c3 e0b4      	LDI  R27,HIGH(1027)
0011c4 940e 0811 	CALL _EEPROM_read
0011c6 efaf      	LDI  R26,LOW(255)
0011c7 940e 1a04 	CALL __NEB12
0011c9 91af      	POP  R26
0011ca 23ea      	AND  R30,R26
0011cb f091      	BREQ _0x37E
                 ; 0000 040D SKZ_2 = ((unsigned int)EEPROM_read(eeAddressSKZ2H)<<8)+EEPROM_read(eeAddressSKZ2L);}        //v
0011cc e0a2      	LDI  R26,LOW(1026)
0011cd e0b4      	LDI  R27,HIGH(1026)
0011ce 940e 0811 	CALL _EEPROM_read
0011d0 2ffe      	MOV  R31,R30
0011d1 e0e0      	LDI  R30,0
0011d2 93ff      	PUSH R31
0011d3 93ef      	PUSH R30
0011d4 e0a3      	LDI  R26,LOW(1027)
0011d5 e0b4      	LDI  R27,HIGH(1027)
0011d6 940e 0811 	CALL _EEPROM_read
0011d8 e0f0      	LDI  R31,0
0011d9 91af      	POP  R26
0011da 91bf      	POP  R27
0011db 0fea      	ADD  R30,R26
0011dc 1ffb      	ADC  R31,R27
0011dd 015f      	MOVW R10,R30
                 ; 0000 040E SKZ1toSKZ2 =   EEPROM_read(eeAddressSKZ1toSKZ2);
                 _0x37E:
0011de e0a4      	LDI  R26,LOW(1028)
0011df e0b4      	LDI  R27,HIGH(1028)
0011e0 940e 0811 	CALL _EEPROM_read
0011e2 2ece      	MOV  R12,R30
0011e3 24dd      	CLR  R13
                 ; 0000 040F if(SKZ1toSKZ2!=0xff){
0011e4 efef      	LDI  R30,LOW(255)
0011e5 e0f0      	LDI  R31,HIGH(255)
0011e6 15ec      	CP   R30,R12
0011e7 05fd      	CPC  R31,R13
0011e8 f191      	BREQ _0x37F
                 ; 0000 0410                                       if(SKZ1toSKZ2<=40){warning_flag=1;
0011e9 e2e8      	LDI  R30,LOW(40)
0011ea e0f0      	LDI  R31,HIGH(40)
0011eb 15ec      	CP   R30,R12
0011ec 05fd      	CPC  R31,R13
0011ed f108      	BRLO _0x380
0011ee e0e1      	LDI  R30,LOW(1)
0011ef e0f0      	LDI  R31,HIGH(1)
0011f0 93e0 05b3 	STS  _warning_flag,R30
0011f2 93f0 05b4 	STS  _warning_flag+1,R31
                 ; 0000 0411                                       if(SKZ1toSKZ2<=20){blink_flag=1;blink_on();}
0011f4 e1e4      	LDI  R30,LOW(20)
0011f5 e0f0      	LDI  R31,HIGH(20)
0011f6 15ec      	CP   R30,R12
0011f7 05fd      	CPC  R31,R13
0011f8 f048      	BRLO _0x381
0011f9 e0e1      	LDI  R30,LOW(1)
0011fa e0f0      	LDI  R31,HIGH(1)
0011fb 93e0 05b9 	STS  _blink_flag,R30
0011fd 93f0 05ba 	STS  _blink_flag+1,R31
0011ff 940e 0c2e 	CALL _blink_on
                 ; 0000 0412                                       else {led_warning_on;blink_flag=0;blink_off();}
001201 c00c      	RJMP _0x382
                 _0x381:
001202 91e0 0062 	LDS  R30,98
001204 61e0      	ORI  R30,0x10
001205 93e0 0062 	STS  98,R30
001207 e0e0      	LDI  R30,LOW(0)
001208 93e0 05b9 	STS  _blink_flag,R30
00120a 93e0 05ba 	STS  _blink_flag+1,R30
00120c 940e 0c36 	CALL _blink_off
                 _0x382:
                 ; 0000 0413                                       }
                 ; 0000 0414                                       else {warning_flag=0;led_warning_off;blink_off(); }}
00120e c00c      	RJMP _0x383
                 _0x380:
00120f e0e0      	LDI  R30,LOW(0)
001210 93e0 05b3 	STS  _warning_flag,R30
001212 93e0 05b4 	STS  _warning_flag+1,R30
001214 91e0 0062 	LDS  R30,98
001216 7eef      	ANDI R30,0xEF
001217 93e0 0062 	STS  98,R30
001219 940e 0c36 	CALL _blink_off
                 _0x383:
                 ; 0000 0415                                    //    blink_display(SKZ_1);  blink_display(SKZ_2);
                 ; 0000 0416                                       //delay_ms(300);
                 ; 0000 0417                                       send_freq_order();
                 _0x37F:
00121b dc7a      	RCALL _send_freq_order
                 ; 0000 0418                                       whait_read;
00121c e0e0      	LDI  R30,LOW(0)
00121d e0f0      	LDI  R31,HIGH(0)
00121e bdfd      	OUT  0x2C+1,R31
00121f bdec      	OUT  0x2C,R30
001220 e0e3      	LDI  R30,LOW(3)
001221 bdee      	OUT  0x2E,R30
                 _0x384:
001222 b7e6      	IN   R30,0x36
001223 ffe2      	SBRS R30,2
001224 cffd      	RJMP _0x384
001225 e0e0      	LDI  R30,LOW(0)
001226 bdee      	OUT  0x2E,R30
001227 b7e6      	IN   R30,0x36
001228 bfe6      	OUT  0x36,R30
                 ; 0000 0419                                       //delay_ms(65);
                 ; 0000 041A                                       send_skz_array();
001229 dc3e      	RCALL _send_skz_array
                 ; 0000 041B                                       whait_read;
00122a e0e0      	LDI  R30,LOW(0)
00122b e0f0      	LDI  R31,HIGH(0)
00122c bdfd      	OUT  0x2C+1,R31
00122d bdec      	OUT  0x2C,R30
00122e e0e3      	LDI  R30,LOW(3)
00122f bdee      	OUT  0x2E,R30
                 _0x387:
001230 b7e6      	IN   R30,0x36
001231 ffe2      	SBRS R30,2
001232 cffd      	RJMP _0x387
001233 e0e0      	LDI  R30,LOW(0)
001234 bdee      	OUT  0x2E,R30
001235 b7e6      	IN   R30,0x36
001236 bfe6      	OUT  0x36,R30
                 ; 0000 041C                                       //delay_ms(65);
                 ; 0000 041D                                         }
                 ; 0000 041E 
                 ; 0000 041F 
                 ; 0000 0420                                   /*    if((SKZ_1==0xffff)&&(SKZ_2==0xffff))no_press=0;
                 ; 0000 0421                                       else{ send_save_frq;
                 ; 0000 0422                                             whait_read;
                 ; 0000 0423                                             send_skz();
                 ; 0000 0424                                             whait_read;}*/
                 ; 0000 0425 
                 ; 0000 0426 while (1)
                 _0x37C:
                 _0x38A:
                 ; 0000 0427         {
                 ; 0000 0428 if(flash_erase_flag ==1)
001237 91a0 05a5 	LDS  R26,_flash_erase_flag
001239 91b0 05a6 	LDS  R27,_flash_erase_flag+1
00123b 9711      	SBIW R26,1
00123c f4d1      	BRNE _0x38D
                 ; 0000 0429     {
                 ; 0000 042A         //eeprom_reset();
                 ; 0000 042B     led(30);
00123d e1ae      	LDI  R26,LOW(30)
00123e 940e 081d 	CALL _led
                 ; 0000 042C     EEPROM_write(0,0xff);
001240 e0e0      	LDI  R30,LOW(0)
001241 e0f0      	LDI  R31,HIGH(0)
001242 93fa      	ST   -Y,R31
001243 93ea      	ST   -Y,R30
001244 efaf      	LDI  R26,LOW(255)
001245 940e 0804 	CALL _EEPROM_write
                 ; 0000 042D     EEPROM_write(1,0xff);
001247 e0e1      	LDI  R30,LOW(1)
001248 e0f0      	LDI  R31,HIGH(1)
001249 93fa      	ST   -Y,R31
00124a 93ea      	ST   -Y,R30
00124b efaf      	LDI  R26,LOW(255)
00124c 940e 0804 	CALL _EEPROM_write
                 ; 0000 042E    // #asm("JMP 0")
                 ; 0000 042F     WDTCR=0x18;
00124e e1e8      	LDI  R30,LOW(24)
00124f bde1      	OUT  0x21,R30
                 ; 0000 0430     WDTCR=0x08;
001250 e0e8      	LDI  R30,LOW(8)
001251 bde1      	OUT  0x21,R30
                 ; 0000 0431     #asm("cli")
001252 94f8      	cli
                 ; 0000 0432     delay_ms(3000);
001253 eba8      	LDI  R26,LOW(3000)
001254 e0bb      	LDI  R27,HIGH(3000)
001255 940e 1844 	CALL _delay_ms
                 ; 0000 0433     }
                 ; 0000 0434       //  if(k==0) {blink_intro();k=1;}
                 ; 0000 0435 reg91_answer=(object_state|(!BPS_absent)<<5)|(red<<4)|((ProcessingEEPROM)<<3)|((red|ProcessingEEPROM)<<2)|((warning_flag ...
                 _0x38D:
001257 91e0 0506 	LDS  R30,_BPS_absent
001259 91f0 0507 	LDS  R31,_BPS_absent+1
00125b 940e 1a2d 	CALL __LNEGW1
00125d 95e2      	SWAP R30
00125e 7fe0      	ANDI R30,0xF0
00125f 0fee      	LSL  R30
001260 91a0 058d 	LDS  R26,_object_state
001262 2bea      	OR   R30,R26
001263 2fae      	MOV  R26,R30
001264 91e0 05bb 	LDS  R30,_red
001266 95e2      	SWAP R30
001267 7fe0      	ANDI R30,0xF0
001268 2bea      	OR   R30,R26
001269 2e0e      	MOV  R0,R30
00126a e0a0      	LDI  R26,0
00126b fc25      	SBRC R2,5
00126c e0a1      	LDI  R26,1
00126d 2fea      	MOV  R30,R26
00126e 0fee      	LSL  R30
00126f 0fee      	LSL  R30
001270 0fee      	LSL  R30
001271 2a0e      	OR   R0,R30
001272 e0e0      	LDI  R30,0
001273 fc25      	SBRC R2,5
001274 e0e1      	LDI  R30,1
001275 91a0 05bb 	LDS  R26,_red
001277 2bea      	OR   R30,R26
001278 0fee      	LSL  R30
001279 0fee      	LSL  R30
00127a 2a0e      	OR   R0,R30
00127b 91e0 05b9 	LDS  R30,_blink_flag
00127d 91f0 05ba 	LDS  R31,_blink_flag+1
00127f 940e 1a2d 	CALL __LNEGW1
001281 0fee      	LSL  R30
001282 91a0 05b3 	LDS  R26,_warning_flag
001284 23ea      	AND  R30,R26
001285 2a0e      	OR   R0,R30
001286 91e0 05b9 	LDS  R30,_blink_flag
001288 91f0 05ba 	LDS  R31,_blink_flag+1
00128a 940e 1a2d 	CALL __LNEGW1
00128c 23ea      	AND  R30,R26
00128d 91a0 05b9 	LDS  R26,_blink_flag
00128f 2bea      	OR   R30,R26
001290 29e0      	OR   R30,R0
001291 93e0 059a 	STS  _reg91_answer,R30
                 ; 0000 0436 
                 ; 0000 0437  if((blink_flag)|(red))blink_on();
001293 91e0 05bb 	LDS  R30,_red
001295 91f0 05bc 	LDS  R31,_red+1
001297 91a0 05b9 	LDS  R26,_blink_flag
001299 91b0 05ba 	LDS  R27,_blink_flag+1
00129b 2bea      	OR   R30,R26
00129c 2bfb      	OR   R31,R27
00129d 9730      	SBIW R30,0
00129e f019      	BREQ _0x38E
00129f 940e 0c2e 	CALL _blink_on
                 ; 0000 0438  else blink_off();
0012a1 c002      	RJMP _0x38F
                 _0x38E:
0012a2 940e 0c36 	CALL _blink_off
                 ; 0000 0439  if(BPS_absent){PORTC.1=!PORTC.1;PORTC.2=!PORTC.2;PORTC.3=!PORTC.3;}
                 _0x38F:
0012a4 91e0 0506 	LDS  R30,_BPS_absent
0012a6 91f0 0507 	LDS  R31,_BPS_absent+1
0012a8 9730      	SBIW R30,0
0012a9 f081      	BREQ _0x390
0012aa 9ba9      	SBIS 0x15,1
0012ab c002      	RJMP _0x391
0012ac 98a9      	CBI  0x15,1
0012ad c001      	RJMP _0x392
                 _0x391:
0012ae 9aa9      	SBI  0x15,1
                 _0x392:
0012af 9baa      	SBIS 0x15,2
0012b0 c002      	RJMP _0x393
0012b1 98aa      	CBI  0x15,2
0012b2 c001      	RJMP _0x394
                 _0x393:
0012b3 9aaa      	SBI  0x15,2
                 _0x394:
0012b4 9bab      	SBIS 0x15,3
0012b5 c002      	RJMP _0x395
0012b6 98ab      	CBI  0x15,3
0012b7 c001      	RJMP _0x396
                 _0x395:
0012b8 9aab      	SBI  0x15,3
                 _0x396:
                 ; 0000 043A  else{PORTC.1=PORTC.1&1;PORTC.2=PORTC.2&1;PORTC.3=PORTC.3&1;}
0012b9 c01b      	RJMP _0x397
                 _0x390:
0012ba e0a0      	LDI  R26,0
0012bb 99a9      	SBIC 0x15,1
0012bc e0a1      	LDI  R26,1
0012bd e0e1      	LDI  R30,LOW(1)
0012be 23ea      	AND  R30,R26
0012bf f411      	BRNE _0x398
0012c0 98a9      	CBI  0x15,1
0012c1 c001      	RJMP _0x399
                 _0x398:
0012c2 9aa9      	SBI  0x15,1
                 _0x399:
0012c3 e0a0      	LDI  R26,0
0012c4 99aa      	SBIC 0x15,2
0012c5 e0a1      	LDI  R26,1
0012c6 e0e1      	LDI  R30,LOW(1)
0012c7 23ea      	AND  R30,R26
0012c8 f411      	BRNE _0x39A
0012c9 98aa      	CBI  0x15,2
0012ca c001      	RJMP _0x39B
                 _0x39A:
0012cb 9aaa      	SBI  0x15,2
                 _0x39B:
0012cc e0a0      	LDI  R26,0
0012cd 99ab      	SBIC 0x15,3
0012ce e0a1      	LDI  R26,1
0012cf e0e1      	LDI  R30,LOW(1)
0012d0 23ea      	AND  R30,R26
0012d1 f411      	BRNE _0x39C
0012d2 98ab      	CBI  0x15,3
0012d3 c001      	RJMP _0x39D
                 _0x39C:
0012d4 9aab      	SBI  0x15,3
                 _0x39D:
                 _0x397:
                 ; 0000 043B  if((object_state==0)&(!BPS_absent))
0012d5 91a0 058d 	LDS  R26,_object_state
0012d7 e0e0      	LDI  R30,LOW(0)
0012d8 940e 19ff 	CALL __EQB12
0012da 2fae      	MOV  R26,R30
0012db 91e0 0506 	LDS  R30,_BPS_absent
0012dd 91f0 0507 	LDS  R31,_BPS_absent+1
0012df 940e 1a2d 	CALL __LNEGW1
0012e1 23ea      	AND  R30,R26
0012e2 f149      	BREQ _0x39E
                 ; 0000 043C  {
                 ; 0000 043D         if(PORTF&0x40==0x40)
0012e3 91e0 0062 	LDS  R30,98
0012e5 70e1      	ANDI R30,LOW(0x1)
0012e6 f099      	BREQ _0x39F
                 ; 0000 043E         {
                 ; 0000 043F                     PORTF=PORTF&0b10111111;
0012e7 91e0 0062 	LDS  R30,98
0012e9 7bef      	ANDI R30,0xBF
0012ea 93e0 0062 	STS  98,R30
                 ; 0000 0440                     PORTF=PORTF&0b11111110;
0012ec 91e0 0062 	LDS  R30,98
0012ee 7fee      	ANDI R30,0xFE
0012ef 93e0 0062 	STS  98,R30
                 ; 0000 0441                     PORTF=PORTF&0b11111011;
0012f1 91e0 0062 	LDS  R30,98
0012f3 7feb      	ANDI R30,0xFB
0012f4 93e0 0062 	STS  98,R30
                 ; 0000 0442                     PORTC.1=0;PORTC.2=0;PORTC.3=0;
0012f6 98a9      	CBI  0x15,1
0012f7 98aa      	CBI  0x15,2
0012f8 98ab      	CBI  0x15,3
                 ; 0000 0443         }
                 ; 0000 0444         else
0012f9 c012      	RJMP _0x3A6
                 _0x39F:
                 ; 0000 0445         {
                 ; 0000 0446                     PORTF=PORTF|0b01000000;
0012fa 91e0 0062 	LDS  R30,98
0012fc 64e0      	ORI  R30,0x40
0012fd 93e0 0062 	STS  98,R30
                 ; 0000 0447                     PORTF=PORTF|0b00000001;
0012ff 91e0 0062 	LDS  R30,98
001301 60e1      	ORI  R30,1
001302 93e0 0062 	STS  98,R30
                 ; 0000 0448                     PORTF=PORTF|0b00000100;
001304 91e0 0062 	LDS  R30,98
001306 60e4      	ORI  R30,4
001307 93e0 0062 	STS  98,R30
                 ; 0000 0449                     PORTC.1=1;PORTC.2=1;PORTC.3=1;
001309 9aa9      	SBI  0x15,1
00130a 9aaa      	SBI  0x15,2
00130b 9aab      	SBI  0x15,3
                 ; 0000 044A         }
                 _0x3A6:
                 ; 0000 044B  }
                 ; 0000 044C current_out(tok);
                 _0x39E:
00130c 91a0 05b1 	LDS  R26,_tok
00130e 91b0 05b2 	LDS  R27,_tok+1
001310 940e 07ec 	CALL _current_out
                 ; 0000 044D if(new_message)
001312 fe23      	SBRS R2,3
001313 c00f      	RJMP _0x3AD
                 ; 0000 044E {
                 ; 0000 044F     if(ModbusMessage==62)
001314 91a0 05b7 	LDS  R26,_ModbusMessage
001316 91b0 05b8 	LDS  R27,_ModbusMessage+1
001318 97de      	SBIW R26,62
001319 f409      	BRNE _0x3AE
                 ; 0000 0450         send_frequency_value();
00131a dabe      	RCALL _send_frequency_value
                 ; 0000 0451     terminal_commander(RData, terminal_mode);
                 _0x3AE:
00131b 91e0 0843 	LDS  R30,_RData
00131d 93ea      	ST   -Y,R30
00131e 91a0 0504 	LDS  R26,_terminal_mode
001320 91b0 0505 	LDS  R27,_terminal_mode+1
001322 dbf8      	RCALL _terminal_commander
                 ; 0000 0452 
                 ; 0000 0453 }
                 ; 0000 0454 rx_c_master=0;rx_m_master=0;
                 _0x3AD:
001323 94e8      	CLT
001324 f822      	BLD  R2,2
001325 f821      	BLD  R2,1
                 ; 0000 0455 rx_wr_index_master=0;rx_counter_master=0;
001326 e0e0      	LDI  R30,LOW(0)
001327 93e0 0595 	STS  _rx_wr_index_master,R30
001329 93e0 0596 	STS  _rx_counter_master,R30
                 ; 0000 0456 current_out(tok);
00132b 91a0 05b1 	LDS  R26,_tok
00132d 91b0 05b2 	LDS  R27,_tok+1
00132f 940e 07ec 	CALL _current_out
                 ; 0000 0457 ClearBuf_master;
001331 e0e0      	LDI  R30,LOW(0)
001332 93e0 050a 	STS  _rx_buffer_master,R30
                +
001334 93e0 050b+STS _rx_buffer_master + ( 1 ) , R30
                 	__PUTB1MN _rx_buffer_master,1
                +
001336 93e0 050c+STS _rx_buffer_master + ( 2 ) , R30
                 	__PUTB1MN _rx_buffer_master,2
                +
001338 93e0 050d+STS _rx_buffer_master + ( 3 ) , R30
                 	__PUTB1MN _rx_buffer_master,3
                +
00133a 93e0 050e+STS _rx_buffer_master + ( 4 ) , R30
                 	__PUTB1MN _rx_buffer_master,4
                +
00133c 93e0 050f+STS _rx_buffer_master + ( 5 ) , R30
                 	__PUTB1MN _rx_buffer_master,5
                +
00133e 93e0 0510+STS _rx_buffer_master + ( 6 ) , R30
                 	__PUTB1MN _rx_buffer_master,6
                +
001340 93e0 0511+STS _rx_buffer_master + ( 7 ) , R30
                 	__PUTB1MN _rx_buffer_master,7
                +
001342 93e0 0512+STS _rx_buffer_master + ( 8 ) , R30
                 	__PUTB1MN _rx_buffer_master,8
                +
001344 93e0 0513+STS _rx_buffer_master + ( 9 ) , R30
                 	__PUTB1MN _rx_buffer_master,9
                 ; 0000 0458 send_read_skz;
001346 efef      	LDI  R30,LOW(65535)
001347 efff      	LDI  R31,HIGH(65535)
001348 93e0 059b 	STS  _crc_master,R30
00134a 93f0 059c 	STS  _crc_master+1,R31
00134c e0a1      	LDI  R26,LOW(1)
00134d d4b8      	RCALL _mov_buf_master
00134e e0a4      	LDI  R26,LOW(4)
00134f d4b6      	RCALL _mov_buf_master
001350 e0a0      	LDI  R26,LOW(0)
001351 d4b4      	RCALL _mov_buf_master
001352 e8a6      	LDI  R26,LOW(134)
001353 d4b2      	RCALL _mov_buf_master
001354 e0a0      	LDI  R26,LOW(0)
001355 d4b0      	RCALL _mov_buf_master
001356 e0a1      	LDI  R26,LOW(1)
001357 d4ae      	RCALL _mov_buf_master
001358 d4ce      	RCALL _crc_end_master
                 ; 0000 0459 current_out(tok);
001359 91a0 05b1 	LDS  R26,_tok
00135b 91b0 05b2 	LDS  R27,_tok+1
00135d 940e 07ec 	CALL _current_out
                 ; 0000 045A whait_read;
00135f e0e0      	LDI  R30,LOW(0)
001360 e0f0      	LDI  R31,HIGH(0)
001361 bdfd      	OUT  0x2C+1,R31
001362 bdec      	OUT  0x2C,R30
001363 e0e3      	LDI  R30,LOW(3)
001364 bdee      	OUT  0x2E,R30
                 _0x3AF:
001365 b7e6      	IN   R30,0x36
001366 ffe2      	SBRS R30,2
001367 cffd      	RJMP _0x3AF
001368 e0e0      	LDI  R30,LOW(0)
001369 bdee      	OUT  0x2E,R30
00136a b7e6      	IN   R30,0x36
00136b bfe6      	OUT  0x36,R30
                 ; 0000 045B current_out(tok);
00136c 91a0 05b1 	LDS  R26,_tok
00136e 91b0 05b2 	LDS  R27,_tok+1
001370 940e 07ec 	CALL _current_out
                 ; 0000 045C         //delay_ms(65);
                 ; 0000 045D            if (check_cr_master()==1)
001372 d3e4      	RCALL _check_cr_master
001373 30e1      	CPI  R30,LOW(0x1)
001374 f009      	BREQ PC+2
001375 c07a      	RJMP _0x3B2
                 ; 0000 045E                 {
                 ; 0000 045F                 rms=0;
001376 2466      	CLR  R6
001377 2477      	CLR  R7
                 ; 0000 0460                 if(rx_counter_master==7) rms=((int)rx_buffer_master[3])<<8|(char)rx_buffer_master[4];
001378 91a0 0596 	LDS  R26,_rx_counter_master
00137a 30a7      	CPI  R26,LOW(0x7)
00137b f449      	BRNE _0x3B3
                +
00137c 91b0 050d+LDS R27 , _rx_buffer_master + ( 3 )
                 	__GETBRMN 27,_rx_buffer_master,3
00137e e0a0      	LDI  R26,LOW(0)
                +
00137f 91e0 050e+LDS R30 , _rx_buffer_master + ( 4 )
                 	__GETB1MN _rx_buffer_master,4
001381 e0f0      	LDI  R31,0
001382 2bea      	OR   R30,R26
001383 2bfb      	OR   R31,R27
001384 013f      	MOVW R6,R30
                 ; 0000 0461 
                 ; 0000 0462                 SKZread_counter++;
                 _0x3B3:
001385 ebad      	LDI  R26,LOW(_SKZread_counter)
001386 e0b5      	LDI  R27,HIGH(_SKZread_counter)
001387 940e 1a5c 	CALL __GETD1P_INC
                +
001389 5fef     +SUBI R30 , LOW ( - 1 )
00138a 4fff     +SBCI R31 , HIGH ( - 1 )
00138b 4f6f     +SBCI R22 , BYTE3 ( - 1 )
00138c 4f7f     +SBCI R23 , BYTE4 ( - 1 )
                 	__SUBD1N -1
00138d 940e 1a61 	CALL __PUTDP1_DEC
                 ; 0000 0463                 BPS_absent=0;
00138f e0e0      	LDI  R30,LOW(0)
001390 93e0 0506 	STS  _BPS_absent,R30
001392 93e0 0507 	STS  _BPS_absent+1,R30
                 ; 0000 0464                 bps_absent_ctr=0;
001394 93e0 0508 	STS  _bps_absent_ctr,R30
001396 93e0 0509 	STS  _bps_absent_ctr+1,R30
                 ; 0000 0465                 AverSKZ_Value=(float)AverSKZ_Value*((float)((float)SKZread_counter-1)/(float)SKZread_counter)+(float)((f ...
001398 91e0 05a7 	LDS  R30,_AverSKZ_Value
00139a 91f0 05a8 	LDS  R31,_AverSKZ_Value+1
00139c 940e 19fa 	CALL __CWD1
00139e 940e 18b4 	CALL __CDF1
0013a0 937f      	PUSH R23
0013a1 936f      	PUSH R22
0013a2 93ff      	PUSH R31
0013a3 93ef      	PUSH R30
0013a4 91e0 05bd 	LDS  R30,_SKZread_counter
0013a6 91f0 05be 	LDS  R31,_SKZread_counter+1
0013a8 9160 05bf 	LDS  R22,_SKZread_counter+2
0013aa 9170 05c0 	LDS  R23,_SKZread_counter+3
0013ac 940e 18b4 	CALL __CDF1
0013ae 01df      	MOVW R26,R30
0013af 01cb      	MOVW R24,R22
                +
0013b0 e0e0     +LDI R30 , LOW ( 0x3F800000 )
0013b1 e0f0     +LDI R31 , HIGH ( 0x3F800000 )
0013b2 e860     +LDI R22 , BYTE3 ( 0x3F800000 )
0013b3 e37f     +LDI R23 , BYTE4 ( 0x3F800000 )
                 	__GETD1N 0x3F800000
0013b4 940e 1a66 	CALL __SWAPD12
0013b6 940e 18e7 	CALL __SUBF12
0013b8 01df      	MOVW R26,R30
0013b9 01cb      	MOVW R24,R22
0013ba 91e0 05bd 	LDS  R30,_SKZread_counter
0013bc 91f0 05be 	LDS  R31,_SKZread_counter+1
0013be 9160 05bf 	LDS  R22,_SKZread_counter+2
0013c0 9170 05c0 	LDS  R23,_SKZread_counter+3
0013c2 940e 18b4 	CALL __CDF1
0013c4 940e 198c 	CALL __DIVF21
0013c6 91af      	POP  R26
0013c7 91bf      	POP  R27
0013c8 918f      	POP  R24
0013c9 919f      	POP  R25
0013ca 940e 193e 	CALL __MULF12
0013cc 937f      	PUSH R23
0013cd 936f      	PUSH R22
0013ce 93ff      	PUSH R31
0013cf 93ef      	PUSH R30
0013d0 01f3      	MOVW R30,R6
0013d1 940e 19fa 	CALL __CWD1
0013d3 940e 18b4 	CALL __CDF1
0013d5 01df      	MOVW R26,R30
0013d6 01cb      	MOVW R24,R22
0013d7 91e0 05bd 	LDS  R30,_SKZread_counter
0013d9 91f0 05be 	LDS  R31,_SKZread_counter+1
0013db 9160 05bf 	LDS  R22,_SKZread_counter+2
0013dd 9170 05c0 	LDS  R23,_SKZread_counter+3
0013df 940e 18b4 	CALL __CDF1
0013e1 940e 198c 	CALL __DIVF21
0013e3 91af      	POP  R26
0013e4 91bf      	POP  R27
0013e5 918f      	POP  R24
0013e6 919f      	POP  R25
0013e7 940e 18ee 	CALL __ADDF12
0013e9 eaa7      	LDI  R26,LOW(_AverSKZ_Value)
0013ea e0b5      	LDI  R27,HIGH(_AverSKZ_Value)
0013eb 940e 187d 	CALL __CFD1
0013ed 93ed      	ST   X+,R30
0013ee 93fc      	ST   X,R31
                 ; 0000 0466               //  if(AverSKZ_Value<minimal_object_enabled_level)disabling_counter++;    (SKZ1-SKZ/SKZ1-SKZ2)    => SKZ = ...
                 ; 0000 0467                 }
                 ; 0000 0468                 else
0013ef c013      	RJMP _0x3B4
                 _0x3B2:
                 ; 0000 0469                 {
                 ; 0000 046A                 bps_absent_ctr++;
0013f0 e0a8      	LDI  R26,LOW(_bps_absent_ctr)
0013f1 e0b5      	LDI  R27,HIGH(_bps_absent_ctr)
0013f2 91ed      	LD   R30,X+
0013f3 91fd      	LD   R31,X+
0013f4 9631      	ADIW R30,1
0013f5 93fe      	ST   -X,R31
0013f6 93ee      	ST   -X,R30
                 ; 0000 046B                 if(bps_absent_ctr>=4)BPS_absent=1;
0013f7 91a0 0508 	LDS  R26,_bps_absent_ctr
0013f9 91b0 0509 	LDS  R27,_bps_absent_ctr+1
0013fb 9714      	SBIW R26,4
0013fc f034      	BRLT _0x3B5
0013fd e0e1      	LDI  R30,LOW(1)
0013fe e0f0      	LDI  R31,HIGH(1)
0013ff 93e0 0506 	STS  _BPS_absent,R30
001401 93f0 0507 	STS  _BPS_absent+1,R31
                 ; 0000 046C                 }
                 _0x3B5:
                 _0x3B4:
                 ; 0000 046D current_out(tok);
001403 91a0 05b1 	LDS  R26,_tok
001405 91b0 05b2 	LDS  R27,_tok+1
001407 940e 07ec 	CALL _current_out
                 ; 0000 046E rx_c_master=0;rx_m_master=0;
001409 94e8      	CLT
00140a f822      	BLD  R2,2
00140b f821      	BLD  R2,1
                 ; 0000 046F rx_wr_index_master=0;rx_counter_master=0;
00140c e0e0      	LDI  R30,LOW(0)
00140d 93e0 0595 	STS  _rx_wr_index_master,R30
00140f 93e0 0596 	STS  _rx_counter_master,R30
                 ; 0000 0470 ClearBuf_master;
001411 93e0 050a 	STS  _rx_buffer_master,R30
                +
001413 93e0 050b+STS _rx_buffer_master + ( 1 ) , R30
                 	__PUTB1MN _rx_buffer_master,1
                +
001415 93e0 050c+STS _rx_buffer_master + ( 2 ) , R30
                 	__PUTB1MN _rx_buffer_master,2
                +
001417 93e0 050d+STS _rx_buffer_master + ( 3 ) , R30
                 	__PUTB1MN _rx_buffer_master,3
                +
001419 93e0 050e+STS _rx_buffer_master + ( 4 ) , R30
                 	__PUTB1MN _rx_buffer_master,4
                +
00141b 93e0 050f+STS _rx_buffer_master + ( 5 ) , R30
                 	__PUTB1MN _rx_buffer_master,5
                +
00141d 93e0 0510+STS _rx_buffer_master + ( 6 ) , R30
                 	__PUTB1MN _rx_buffer_master,6
                +
00141f 93e0 0511+STS _rx_buffer_master + ( 7 ) , R30
                 	__PUTB1MN _rx_buffer_master,7
                +
001421 93e0 0512+STS _rx_buffer_master + ( 8 ) , R30
                 	__PUTB1MN _rx_buffer_master,8
                +
001423 93e0 0513+STS _rx_buffer_master + ( 9 ) , R30
                 	__PUTB1MN _rx_buffer_master,9
                 ; 0000 0471     send_read_object_state;
001425 efef      	LDI  R30,LOW(65535)
001426 efff      	LDI  R31,HIGH(65535)
001427 93e0 059b 	STS  _crc_master,R30
001429 93f0 059c 	STS  _crc_master+1,R31
00142b e0a1      	LDI  R26,LOW(1)
00142c d3d9      	RCALL _mov_buf_master
00142d e0a4      	LDI  R26,LOW(4)
00142e d3d7      	RCALL _mov_buf_master
00142f e0a0      	LDI  R26,LOW(0)
001430 d3d5      	RCALL _mov_buf_master
001431 e8a8      	LDI  R26,LOW(136)
001432 d3d3      	RCALL _mov_buf_master
001433 e0a0      	LDI  R26,LOW(0)
001434 d3d1      	RCALL _mov_buf_master
001435 e0a1      	LDI  R26,LOW(1)
001436 d3cf      	RCALL _mov_buf_master
001437 d3ef      	RCALL _crc_end_master
                 ; 0000 0472     current_out(tok);
001438 91a0 05b1 	LDS  R26,_tok
00143a 91b0 05b2 	LDS  R27,_tok+1
00143c 940e 07ec 	CALL _current_out
                 ; 0000 0473     whait_read;
00143e e0e0      	LDI  R30,LOW(0)
00143f e0f0      	LDI  R31,HIGH(0)
001440 bdfd      	OUT  0x2C+1,R31
001441 bdec      	OUT  0x2C,R30
001442 e0e3      	LDI  R30,LOW(3)
001443 bdee      	OUT  0x2E,R30
                 _0x3B6:
001444 b7e6      	IN   R30,0x36
001445 ffe2      	SBRS R30,2
001446 cffd      	RJMP _0x3B6
001447 e0e0      	LDI  R30,LOW(0)
001448 bdee      	OUT  0x2E,R30
001449 b7e6      	IN   R30,0x36
00144a bfe6      	OUT  0x36,R30
                 ; 0000 0474     current_out(tok);
00144b 91a0 05b1 	LDS  R26,_tok
00144d 91b0 05b2 	LDS  R27,_tok+1
00144f 940e 07ec 	CALL _current_out
                 ; 0000 0475      if (check_cr_master()==1)
001451 d305      	RCALL _check_cr_master
                 ; 0000 0476      {
                 ; 0000 0477      //   object_state_tmp=0;
                 ; 0000 0478      //   if(rx_counter_master==7)object_state_tmp=((int)rx_buffer_master[3])<<8|(char)rx_buffer_master[4];
                 ; 0000 0479      //   if(object_state_tmp==0)disabling_counter++;
                 ; 0000 047A 
                 ; 0000 047B     //transmitter_on;TX_slave_on;printf("AverSKZ_Value=%d,skz_counter=%d,enabled:%d\r\n",AverSKZ_Value,SKZread_counter,o ...
                 ; 0000 047C      }
                 ; 0000 047D                // if(BPS_absent)BPS_link_failed;
                 ; 0000 047E                //    blink_display(rms*100);
                 ; 0000 047F                 //if(rms>0x10000)
                 ; 0000 0480                 //rms=0-rms;
                 ; 0000 0481                 //rms=(float)((float)0.065*rms+10.5);
                 ; 0000 0482             //    }
                 ; 0000 0483        // }
                 ; 0000 0484        // y=(float)((float)0.5*rms+(float)0.5*y+0.5);
                 ; 0000 0485 
                 ; 0000 0486                  if((AvTimer>=(AverTime_Value))&(AverTime_Value!=0)&(!BPS_absent))
001452 91e0 059f 	LDS  R30,_AverTime_Value
001454 91f0 05a0 	LDS  R31,_AverTime_Value+1
001456 91a0 05a1 	LDS  R26,_AvTimer
001458 91b0 05a2 	LDS  R27,_AvTimer+1
00145a 940e 1a1b 	CALL __GEW12
00145c 2e0e      	MOV  R0,R30
00145d 91a0 059f 	LDS  R26,_AverTime_Value
00145f 91b0 05a0 	LDS  R27,_AverTime_Value+1
001461 e0e0      	LDI  R30,LOW(0)
001462 e0f0      	LDI  R31,HIGH(0)
001463 940e 1a0f 	CALL __NEW12
001465 21e0      	AND  R30,R0
001466 2fae      	MOV  R26,R30
001467 91e0 0506 	LDS  R30,_BPS_absent
001469 91f0 0507 	LDS  R31,_BPS_absent+1
00146b 940e 1a2d 	CALL __LNEGW1
00146d 23ea      	AND  R30,R26
00146e f409      	BRNE PC+2
00146f c0e2      	RJMP _0x3BA
                 ; 0000 0487                  {
                 ; 0000 0488                    // if(disabling_counter>=(AverTime_Value*2))object_state=0;
                 ; 0000 0489                     true_skz=(float)SKZ_1-(float)(SKZ_1-SKZ_2)*AverSKZ_Value/100;
001470 01f4      	MOVW R30,R8
001471 2766      	CLR  R22
001472 2777      	CLR  R23
001473 940e 18b4 	CALL __CDF1
001475 937f      	PUSH R23
001476 936f      	PUSH R22
001477 93ff      	PUSH R31
001478 93ef      	PUSH R30
001479 01f4      	MOVW R30,R8
00147a 19ea      	SUB  R30,R10
00147b 09fb      	SBC  R31,R11
00147c 2766      	CLR  R22
00147d 2777      	CLR  R23
00147e 940e 18b4 	CALL __CDF1
001480 01df      	MOVW R26,R30
001481 01cb      	MOVW R24,R22
001482 91e0 05a7 	LDS  R30,_AverSKZ_Value
001484 91f0 05a8 	LDS  R31,_AverSKZ_Value+1
001486 940e 19fa 	CALL __CWD1
001488 940e 18b4 	CALL __CDF1
00148a 940e 193e 	CALL __MULF12
00148c 01df      	MOVW R26,R30
00148d 01cb      	MOVW R24,R22
                +
00148e e0e0     +LDI R30 , LOW ( 0x42C80000 )
00148f e0f0     +LDI R31 , HIGH ( 0x42C80000 )
001490 ec68     +LDI R22 , BYTE3 ( 0x42C80000 )
001491 e472     +LDI R23 , BYTE4 ( 0x42C80000 )
                 	__GETD1N 0x42C80000
001492 940e 198c 	CALL __DIVF21
001494 91af      	POP  R26
001495 91bf      	POP  R27
001496 918f      	POP  R24
001497 919f      	POP  R25
001498 940e 1a66 	CALL __SWAPD12
00149a 940e 18e7 	CALL __SUBF12
00149c e0a2      	LDI  R26,LOW(_true_skz)
00149d e0b5      	LDI  R27,HIGH(_true_skz)
00149e 940e 187b 	CALL __CFD1U
0014a0 93ed      	ST   X+,R30
0014a1 93fc      	ST   X,R31
                 ; 0000 048A                     if(true_skz<minimal_object_enabled_level)object_state = 0;
0014a2 91e0 0593 	LDS  R30,_minimal_object_enabled_level
0014a4 91f0 0594 	LDS  R31,_minimal_object_enabled_level+1
0014a6 91a0 0502 	LDS  R26,_true_skz
0014a8 91b0 0503 	LDS  R27,_true_skz+1
0014aa 17ae      	CP   R26,R30
0014ab 07bf      	CPC  R27,R31
0014ac f410      	BRSH _0x3BB
0014ad e0e0      	LDI  R30,LOW(0)
0014ae c001      	RJMP _0x429
                 ; 0000 048B                     else object_state=0x40;
                 _0x3BB:
0014af e4e0      	LDI  R30,LOW(64)
                 _0x429:
0014b0 93e0 058d 	STS  _object_state,R30
                 ; 0000 048C                     AvTimer=0;
0014b2 e0e0      	LDI  R30,LOW(0)
0014b3 93e0 05a1 	STS  _AvTimer,R30
0014b5 93e0 05a2 	STS  _AvTimer+1,R30
                 ; 0000 048D                     disabling_counter=0;
0014b7 83ed      	STD  Y+5,R30
                 ; 0000 048E                     //  if(SKZread_counter==0)SKZread_counter=1;
                 ; 0000 048F                     //  AverSKZ_Value=(int)AverSKZ_Value/SKZread_counter;
                 ; 0000 0490                     //if(AverSKZ_Value<0)rms=(int)AverSKZ_Value;
                 ; 0000 0491                     //if(AverSKZ_Value>0)rms=(int)AverSKZ_Value;
                 ; 0000 0492                     if(AverSKZ_Value==0)rms=0;
0014b8 91e0 05a7 	LDS  R30,_AverSKZ_Value
0014ba 91f0 05a8 	LDS  R31,_AverSKZ_Value+1
0014bc 9730      	SBIW R30,0
0014bd f411      	BRNE _0x3BD
0014be 2466      	CLR  R6
0014bf 2477      	CLR  R7
                 ; 0000 0493                     // transmitter_on;TX_slave_on;printf("rms=%d object_state:%d\r\n",rms,object_state);TX_slave_off;tra ...
                 ; 0000 0494                     //  TX_slave_on;printf("AverSKZ_Value=%d rms=%d \r\n",AverSKZ_Value,rms);TX_slave_off;
                 ; 0000 0495                     SKZread_counter=0;
                 _0x3BD:
0014c0 e0e0      	LDI  R30,LOW(0)
0014c1 93e0 05bd 	STS  _SKZread_counter,R30
0014c3 93e0 05be 	STS  _SKZread_counter+1,R30
0014c5 93e0 05bf 	STS  _SKZread_counter+2,R30
0014c7 93e0 05c0 	STS  _SKZread_counter+3,R30
                 ; 0000 0496                     if(rms>=127|rms<-127)
0014c9 01d3      	MOVW R26,R6
0014ca e7ef      	LDI  R30,LOW(127)
0014cb e0f0      	LDI  R31,HIGH(127)
0014cc 940e 1a1b 	CALL __GEW12
0014ce 2e0e      	MOV  R0,R30
0014cf e8e1      	LDI  R30,LOW(65409)
0014d0 efff      	LDI  R31,HIGH(65409)
0014d1 940e 1a21 	CALL __LTW12
0014d3 29e0      	OR   R30,R0
0014d4 f079      	BREQ _0x3BE
                 ; 0000 0497                     {
                 ; 0000 0498                         if(rms>=127)AverSKZprcnt=127;
0014d5 e7ef      	LDI  R30,LOW(127)
0014d6 e0f0      	LDI  R31,HIGH(127)
0014d7 166e      	CP   R6,R30
0014d8 067f      	CPC  R7,R31
0014d9 f014      	BRLT _0x3BF
0014da 93e0 05ae 	STS  _AverSKZprcnt,R30
                 ; 0000 0499                         if(rms<-127)AverSKZprcnt=-127;
                 _0x3BF:
0014dc e8e1      	LDI  R30,LOW(65409)
0014dd efff      	LDI  R31,HIGH(65409)
0014de 166e      	CP   R6,R30
0014df 067f      	CPC  R7,R31
0014e0 f414      	BRGE _0x3C0
0014e1 93e0 05ae 	STS  _AverSKZprcnt,R30
                 ; 0000 049A                     }
                 _0x3C0:
                 ; 0000 049B                     else AverSKZprcnt=(char)rms;
0014e3 c002      	RJMP _0x3C1
                 _0x3BE:
0014e4 9260 05ae 	STS  _AverSKZprcnt,R6
                 ; 0000 049C 
                 ; 0000 049D                     //  transmitter_on;TX_slave_on;printf("rms=%d, AverSKZprcn%d object_state:%d\r\n",rms,AverSKZprcnt,o ...
                 ; 0000 049E                     // TX_slave_on;printf("AverSKZprcnt=%d\r\n",AverSKZprcnt);TX_slave_off;
                 ; 0000 049F 
                 ; 0000 04A0                     led(30);
                 _0x3C1:
0014e6 e1ae      	LDI  R26,LOW(30)
0014e7 940e 081d 	CALL _led
                 ; 0000 04A1                     if(object_state==0)   //β ρλσχΰε, ερλθ ςπεςό οπθψεδψθυ ρξξαωενθι ρθγνΰλθηθπσώς βϋκλώχεννξε ρξρςξνθε ...
0014e9 91e0 058d 	LDS  R30,_object_state
0014eb 30e0      	CPI  R30,0
0014ec f4d1      	BRNE _0x3C2
                 ; 0000 04A2                     {
                 ; 0000 04A3                     PORTF=PORTF|0b01000000;
0014ed 91e0 0062 	LDS  R30,98
0014ef 64e0      	ORI  R30,0x40
0014f0 93e0 0062 	STS  98,R30
                 ; 0000 04A4                     PORTF=PORTF|0b00000001;
0014f2 91e0 0062 	LDS  R30,98
0014f4 60e1      	ORI  R30,1
0014f5 93e0 0062 	STS  98,R30
                 ; 0000 04A5                     PORTF=PORTF|0b00000100;
0014f7 91e0 0062 	LDS  R30,98
0014f9 60e4      	ORI  R30,4
0014fa 93e0 0062 	STS  98,R30
                 ; 0000 04A6                     LedQ=0;
0014fc 2444      	CLR  R4
0014fd 2455      	CLR  R5
                 ; 0000 04A7                     AverSKZprcnt=100;
0014fe e6e4      	LDI  R30,LOW(100)
0014ff 93e0 05ae 	STS  _AverSKZprcnt,R30
                 ; 0000 04A8                     //SPCR=0x00;
                 ; 0000 04A9                     tok=0;
001501 e0e0      	LDI  R30,LOW(0)
001502 93e0 05b1 	STS  _tok,R30
001504 93e0 05b2 	STS  _tok+1,R30
                 ; 0000 04AA                     }
                 ; 0000 04AB                 else
001506 c046      	RJMP _0x3C3
                 _0x3C2:
                 ; 0000 04AC                     {
                 ; 0000 04AD                     PORTF=PORTF&0b10111111;
001507 91e0 0062 	LDS  R30,98
001509 7bef      	ANDI R30,0xBF
00150a 93e0 0062 	STS  98,R30
                 ; 0000 04AE                     PORTF=PORTF&0b11111110;
00150c 91e0 0062 	LDS  R30,98
00150e 7fee      	ANDI R30,0xFE
00150f 93e0 0062 	STS  98,R30
                 ; 0000 04AF                     PORTF=PORTF&0b11111011;
001511 91e0 0062 	LDS  R30,98
001513 7feb      	ANDI R30,0xFB
001514 93e0 0062 	STS  98,R30
                 ; 0000 04B0                     LedQ=ind_select(rms);
001516 01d3      	MOVW R26,R6
001517 940e 0ec2 	CALL _ind_select
001519 012f      	MOVW R4,R30
                 ; 0000 04B1                     SPCR=0xDE;
00151a edee      	LDI  R30,LOW(222)
00151b b9ed      	OUT  0xD,R30
                 ; 0000 04B2                     //transmitter_on;TX_slave_on;printf("LedQ=%d\r\n",LedQ);TX_slave_off;transmitter_off;
                 ; 0000 04B3                     led(LedQ);
00151c 2da4      	MOV  R26,R4
00151d 940e 081d 	CALL _led
                 ; 0000 04B4                     if (AverSKZprcnt<-100)tok=2000;
00151f 91a0 05ae 	LDS  R26,_AverSKZprcnt
001521 39ac      	CPI  R26,LOW(0x9C)
001522 f41c      	BRGE _0x3C4
001523 ede0      	LDI  R30,LOW(2000)
001524 e0f7      	LDI  R31,HIGH(2000)
001525 c00f      	RJMP _0x42A
                 ; 0000 04B5                     else tok=8*(100-AverSKZprcnt)+400;
                 _0x3C4:
001526 91e0 05ae 	LDS  R30,_AverSKZprcnt
001528 e0f0      	LDI  R31,0
001529 fde7      	SBRC R30,7
00152a efff      	SER  R31
00152b e6a4      	LDI  R26,LOW(100)
00152c e0b0      	LDI  R27,HIGH(100)
00152d 940e 1a6c 	CALL __SWAPW12
00152f 1bea      	SUB  R30,R26
001530 0bfb      	SBC  R31,R27
001531 940e 19e5 	CALL __LSLW3
001533 57e0      	SUBI R30,LOW(-400)
001534 4ffe      	SBCI R31,HIGH(-400)
                 _0x42A:
001535 93e0 05b1 	STS  _tok,R30
001537 93f0 05b2 	STS  _tok+1,R31
                 ; 0000 04B6                     if (tok<400)tok=400;
001539 91a0 05b1 	LDS  R26,_tok
00153b 91b0 05b2 	LDS  R27,_tok+1
00153d 39a0      	CPI  R26,LOW(0x190)
00153e e0e1      	LDI  R30,HIGH(0x190)
00153f 07be      	CPC  R27,R30
001540 f430      	BRSH _0x3C6
001541 e9e0      	LDI  R30,LOW(400)
001542 e0f1      	LDI  R31,HIGH(400)
001543 93e0 05b1 	STS  _tok,R30
001545 93f0 05b2 	STS  _tok+1,R31
                 ; 0000 04B7                     current_out(tok);
                 _0x3C6:
001547 91a0 05b1 	LDS  R26,_tok
001549 91b0 05b2 	LDS  R27,_tok+1
00154b 940e 07ec 	CALL _current_out
                 ; 0000 04B8                     }
                 _0x3C3:
                 ; 0000 04B9                 //transmitter_on;TX_slave_on;printf("rms=%d\r\n",rms);TX_slave_off;transmitter_off;
                 ; 0000 04BA                 //current interface module with SPI
                 ; 0000 04BB 
                 ; 0000 04BC //end of module
                 ; 0000 04BD                 AverSKZ_Value=0;}
00154d e0e0      	LDI  R30,LOW(0)
00154e 93e0 05a7 	STS  _AverSKZ_Value,R30
001550 93e0 05a8 	STS  _AverSKZ_Value+1,R30
                 ; 0000 04BE 
                 ; 0000 04BF //if(BPS_absent){PORTC.1=!PORTC.1;PORTC.2=!PORTC.2;PORTC.3=!PORTC.3;}
                 ; 0000 04C0 
                 ; 0000 04C1       //  y=(float)((float)0.5*rms+(float)0.5*y+0.5);
                 ; 0000 04C2 
                 ; 0000 04C3       // if (y>20) y=20;if (y<1) y=1;
                 ; 0000 04C4       //}  */
                 ; 0000 04C5 //        if(blink_flag==1) led_green_off;
                 ; 0000 04C6 //-------------------------------------------
                 ; 0000 04C7 // μξδσλό ςξκξβξγξ θνςεπτειρΰ
                 ; 0000 04C8 //-------------------------------------------
                 ; 0000 04C9 
                 ; 0000 04CA /*******************************************************/
                 ; 0000 04CB 
                 ; 0000 04CC         if(start_calibration==1)
                 _0x3BA:
001552 91a0 05a3 	LDS  R26,_start_calibration
001554 91b0 05a4 	LDS  R27,_start_calibration+1
001556 9711      	SBIW R26,1
001557 f459      	BRNE _0x3C7
                 ; 0000 04CD         {
                 ; 0000 04CE         press=0;key=0;
001558 94e8      	CLT
001559 f826      	BLD  R2,6
00155a 989d      	CBI  0x13,5
                 ; 0000 04CF         if ((first_press==1)&&(second_press==1))
00155b fe27      	SBRS R2,7
00155c c002      	RJMP _0x3CB
00155d fc30      	SBRC R3,0
00155e c001      	RJMP _0x3CC
                 _0x3CB:
00155f c003      	RJMP _0x3CA
                 _0x3CC:
                 ; 0000 04D0             {
                 ; 0000 04D1             first_press=0;second_press=0;
001560 94e8      	CLT
001561 f827      	BLD  R2,7
001562 f830      	BLD  R3,0
                 ; 0000 04D2             }
                 ; 0000 04D3         }
                 _0x3CA:
                 ; 0000 04D4         //if(finish_calibration==1){key=1;drebezg=2;}
                 ; 0000 04D5         if(((key==0)&&(press==0))|start_calibration)
                 _0x3C7:
001563 999d      	SBIC 0x13,5
001564 c004      	RJMP _0x3CE
001565 fc26      	SBRC R2,6
001566 c002      	RJMP _0x3CE
001567 e0e1      	LDI  R30,1
001568 c001      	RJMP _0x3CF
                 _0x3CE:
001569 e0e0      	LDI  R30,0
                 _0x3CF:
00156a 2fae      	MOV  R26,R30
00156b 91e0 05a3 	LDS  R30,_start_calibration
00156d 91f0 05a4 	LDS  R31,_start_calibration+1
00156f 2bea      	OR   R30,R26
001570 9730      	SBIW R30,0
001571 f409      	BRNE PC+2
001572 c1c4      	RJMP _0x3CD
                 ; 0000 04D6                 {
                 ; 0000 04D7 
                 ; 0000 04D8                 warning_flag=0;
001573 e0e0      	LDI  R30,LOW(0)
001574 93e0 05b3 	STS  _warning_flag,R30
001576 93e0 05b4 	STS  _warning_flag+1,R30
                 ; 0000 04D9                 blink_flag=0;
001578 93e0 05b9 	STS  _blink_flag,R30
00157a 93e0 05ba 	STS  _blink_flag+1,R30
                 ; 0000 04DA                 //TCNT3H=0;
                 ; 0000 04DB                 //TCNT3L=0;
                 ; 0000 04DC 
                 ; 0000 04DD                 press=1;drebezg=0;
00157c 9468      	SET
00157d f826      	BLD  R2,6
00157e 93e0 05ad 	STS  _drebezg,R30
                 ; 0000 04DE                 if(((first_press==0)&&(second_press==0)))
001580 fc27      	SBRC R2,7
001581 c002      	RJMP _0x3D1
001582 fe30      	SBRS R3,0
001583 c001      	RJMP _0x3D2
                 _0x3D1:
001584 c038      	RJMP _0x3D0
                 _0x3D2:
                 ; 0000 04DF                         {
                 ; 0000 04E0                         start_calibration=0;
001585 e0e0      	LDI  R30,LOW(0)
001586 93e0 05a3 	STS  _start_calibration,R30
001588 93e0 05a4 	STS  _start_calibration+1,R30
                 ; 0000 04E1                         no_press=0;
                +
00158a e020     +LDI R18 , LOW ( 0 )
00158b e030     +LDI R19 , HIGH ( 0 )
                 	__GETWRN 18,19,0
                 ; 0000 04E2                         red = 1;
00158c e0e1      	LDI  R30,LOW(1)
00158d e0f0      	LDI  R31,HIGH(1)
00158e 93e0 05bb 	STS  _red,R30
001590 93f0 05bc 	STS  _red+1,R31
                 ; 0000 04E3 //                        led_green_off;
                 ; 0000 04E4 
                 ; 0000 04E5                         first_press=1;
001592 9468      	SET
001593 f827      	BLD  R2,7
                 ; 0000 04E6                      	send_save_skz1;         //ρξυπΰνεμ β ΑΟΡ ρκη1
001594 efef      	LDI  R30,LOW(65535)
001595 efff      	LDI  R31,HIGH(65535)
001596 93e0 059b 	STS  _crc_master,R30
001598 93f0 059c 	STS  _crc_master+1,R31
00159a e0a1      	LDI  R26,LOW(1)
00159b d26a      	RCALL _mov_buf_master
00159c e0a6      	LDI  R26,LOW(6)
00159d d268      	RCALL _mov_buf_master
00159e e0a0      	LDI  R26,LOW(0)
00159f d266      	RCALL _mov_buf_master
0015a0 e8a1      	LDI  R26,LOW(129)
0015a1 d264      	RCALL _mov_buf_master
0015a2 e0a0      	LDI  R26,LOW(0)
0015a3 d262      	RCALL _mov_buf_master
0015a4 e0a1      	LDI  R26,LOW(1)
0015a5 d260      	RCALL _mov_buf_master
0015a6 d280      	RCALL _crc_end_master
                 ; 0000 04E7                         whait_read;
0015a7 e0e0      	LDI  R30,LOW(0)
0015a8 e0f0      	LDI  R31,HIGH(0)
0015a9 bdfd      	OUT  0x2C+1,R31
0015aa bdec      	OUT  0x2C,R30
0015ab e0e3      	LDI  R30,LOW(3)
0015ac bdee      	OUT  0x2E,R30
                 _0x3D3:
0015ad b7e6      	IN   R30,0x36
0015ae ffe2      	SBRS R30,2
0015af cffd      	RJMP _0x3D3
0015b0 e0e0      	LDI  R30,LOW(0)
0015b1 bdee      	OUT  0x2E,R30
0015b2 b7e6      	IN   R30,0x36
0015b3 bfe6      	OUT  0x36,R30
                 ; 0000 04E8                         //delay_ms(65);
                 ; 0000 04E9                         save_skz_arrays(red);
0015b4 91a0 05bb 	LDS  R26,_red
0015b6 91b0 05bc 	LDS  R27,_red+1
0015b8 940e 0c3d 	CALL _save_skz_arrays
                 ; 0000 04EA                           save_freq_order();
0015ba 940e 0d41 	CALL _save_freq_order
                 ; 0000 04EB                         }
                 ; 0000 04EC                 else if(((first_press==1)&&(second_press==0)))
0015bc c17a      	RJMP _0x3D6
                 _0x3D0:
0015bd fe27      	SBRS R2,7
0015be c002      	RJMP _0x3D8
0015bf fe30      	SBRS R3,0
0015c0 c001      	RJMP _0x3D9
                 _0x3D8:
0015c1 c175      	RJMP _0x3D7
                 _0x3D9:
                 ; 0000 04ED                         {
                 ; 0000 04EE                         start_calibration=0;
0015c2 e0e0      	LDI  R30,LOW(0)
0015c3 93e0 05a3 	STS  _start_calibration,R30
0015c5 93e0 05a4 	STS  _start_calibration+1,R30
                 ; 0000 04EF                         red=0;
0015c7 93e0 05bb 	STS  _red,R30
0015c9 93e0 05bc 	STS  _red+1,R30
                 ; 0000 04F0                         second_press=1;
0015cb 9468      	SET
0015cc f830      	BLD  R3,0
                 ; 0000 04F1                 	    send_save_skz2;
0015cd efef      	LDI  R30,LOW(65535)
0015ce efff      	LDI  R31,HIGH(65535)
0015cf 93e0 059b 	STS  _crc_master,R30
0015d1 93f0 059c 	STS  _crc_master+1,R31
0015d3 e0a1      	LDI  R26,LOW(1)
0015d4 d231      	RCALL _mov_buf_master
0015d5 e0a6      	LDI  R26,LOW(6)
0015d6 d22f      	RCALL _mov_buf_master
0015d7 e0a0      	LDI  R26,LOW(0)
0015d8 d22d      	RCALL _mov_buf_master
0015d9 e8a2      	LDI  R26,LOW(130)
0015da d22b      	RCALL _mov_buf_master
0015db e0a0      	LDI  R26,LOW(0)
0015dc d229      	RCALL _mov_buf_master
0015dd e0a1      	LDI  R26,LOW(1)
0015de d227      	RCALL _mov_buf_master
0015df d247      	RCALL _crc_end_master
                 ; 0000 04F2                         whait_read;
0015e0 e0e0      	LDI  R30,LOW(0)
0015e1 e0f0      	LDI  R31,HIGH(0)
0015e2 bdfd      	OUT  0x2C+1,R31
0015e3 bdec      	OUT  0x2C,R30
0015e4 e0e3      	LDI  R30,LOW(3)
0015e5 bdee      	OUT  0x2E,R30
                 _0x3DA:
0015e6 b7e6      	IN   R30,0x36
0015e7 ffe2      	SBRS R30,2
0015e8 cffd      	RJMP _0x3DA
0015e9 e0e0      	LDI  R30,LOW(0)
0015ea bdee      	OUT  0x2E,R30
0015eb b7e6      	IN   R30,0x36
0015ec bfe6      	OUT  0x36,R30
                 ; 0000 04F3                         //delay_ms(65);
                 ; 0000 04F4                  // if(finish_calibration){key=1;drebezg=2;finish_calibration=0;}
                 ; 0000 04F5                	        rx_c_master=0;rx_m_master=0;rx_wr_index_master=0;rx_counter_master=0;       //ξανσλεμ αστεπ μΰρ ...
0015ed 94e8      	CLT
0015ee f822      	BLD  R2,2
0015ef f821      	BLD  R2,1
0015f0 e0e0      	LDI  R30,LOW(0)
0015f1 93e0 0595 	STS  _rx_wr_index_master,R30
0015f3 93e0 0596 	STS  _rx_counter_master,R30
                 ; 0000 04F6                         rx_buffer_master[1]=0;
                +
0015f5 93e0 050b+STS _rx_buffer_master + ( 1 ) , R30
                 	__PUTB1MN _rx_buffer_master,1
                 ; 0000 04F7                         rx_buffer_master[2]=0;
                +
0015f7 93e0 050c+STS _rx_buffer_master + ( 2 ) , R30
                 	__PUTB1MN _rx_buffer_master,2
                 ; 0000 04F8                         rx_buffer_master[3]=0;
                +
0015f9 93e0 050d+STS _rx_buffer_master + ( 3 ) , R30
                 	__PUTB1MN _rx_buffer_master,3
                 ; 0000 04F9                         rx_buffer_master[4]=0;
                +
0015fb 93e0 050e+STS _rx_buffer_master + ( 4 ) , R30
                 	__PUTB1MN _rx_buffer_master,4
                 ; 0000 04FA                         rx_buffer_master[5]=0;
                +
0015fd 93e0 050f+STS _rx_buffer_master + ( 5 ) , R30
                 	__PUTB1MN _rx_buffer_master,5
                 ; 0000 04FB                         rx_buffer_master[6]=0;
                +
0015ff 93e0 0510+STS _rx_buffer_master + ( 6 ) , R30
                 	__PUTB1MN _rx_buffer_master,6
                 ; 0000 04FC                         rx_buffer_master[7]=0;
                +
001601 93e0 0511+STS _rx_buffer_master + ( 7 ) , R30
                 	__PUTB1MN _rx_buffer_master,7
                 ; 0000 04FD                         rx_buffer_master[8]=0;
                +
001603 93e0 0512+STS _rx_buffer_master + ( 8 ) , R30
                 	__PUTB1MN _rx_buffer_master,8
                 ; 0000 04FE                         rx_buffer_master[9]=0;
                +
001605 93e0 0513+STS _rx_buffer_master + ( 9 ) , R30
                 	__PUTB1MN _rx_buffer_master,9
                 ; 0000 04FF                         send_read_skzrel;//χθςΰεμ ηνΰχενθε ξςνξρθςελόνξγξ θημενενθ ρθγνΰλΰ
001607 efef      	LDI  R30,LOW(65535)
001608 efff      	LDI  R31,HIGH(65535)
001609 93e0 059b 	STS  _crc_master,R30
00160b 93f0 059c 	STS  _crc_master+1,R31
00160d e0a1      	LDI  R26,LOW(1)
00160e d1f7      	RCALL _mov_buf_master
00160f e0a4      	LDI  R26,LOW(4)
001610 d1f5      	RCALL _mov_buf_master
001611 e0a0      	LDI  R26,LOW(0)
001612 d1f3      	RCALL _mov_buf_master
001613 e8a7      	LDI  R26,LOW(135)
001614 d1f1      	RCALL _mov_buf_master
001615 e0a0      	LDI  R26,LOW(0)
001616 d1ef      	RCALL _mov_buf_master
001617 e0a1      	LDI  R26,LOW(1)
001618 d1ed      	RCALL _mov_buf_master
001619 d20d      	RCALL _crc_end_master
                 ; 0000 0500                         whait_read;
00161a e0e0      	LDI  R30,LOW(0)
00161b e0f0      	LDI  R31,HIGH(0)
00161c bdfd      	OUT  0x2C+1,R31
00161d bdec      	OUT  0x2C,R30
00161e e0e3      	LDI  R30,LOW(3)
00161f bdee      	OUT  0x2E,R30
                 _0x3DD:
001620 b7e6      	IN   R30,0x36
001621 ffe2      	SBRS R30,2
001622 cffd      	RJMP _0x3DD
001623 e0e0      	LDI  R30,LOW(0)
001624 bdee      	OUT  0x2E,R30
001625 b7e6      	IN   R30,0x36
001626 bfe6      	OUT  0x36,R30
                 ; 0000 0501                          //delay_ms(65);
                 ; 0000 0502                         if (check_cr_master()==1)
001627 d12f      	RCALL _check_cr_master
001628 30e1      	CPI  R30,LOW(0x1)
001629 f4a9      	BRNE _0x3E0
                 ; 0000 0503                                  {
                 ; 0000 0504                                  SKZ1toSKZ2=0;
00162a 24cc      	CLR  R12
00162b 24dd      	CLR  R13
                 ; 0000 0505                                  if(rx_counter_master==7)SKZ1toSKZ2=((unsigned int)rx_buffer_master[3]<<8)+rx_buffer_mas ...
00162c 91a0 0596 	LDS  R26,_rx_counter_master
00162e 30a7      	CPI  R26,LOW(0x7)
00162f f449      	BRNE _0x3E1
                +
001630 91b0 050d+LDS R27 , _rx_buffer_master + ( 3 )
                 	__GETBRMN 27,_rx_buffer_master,3
001632 e0a0      	LDI  R26,LOW(0)
                +
001633 91e0 050e+LDS R30 , _rx_buffer_master + ( 4 )
                 	__GETB1MN _rx_buffer_master,4
001635 e0f0      	LDI  R31,0
001636 0fea      	ADD  R30,R26
001637 1ffb      	ADC  R31,R27
001638 016f      	MOVW R12,R30
                 _0x3E1:
001639 e0e0      	LDI  R30,LOW(0)
00163a 93e0 0506 	STS  _BPS_absent,R30
00163c 93e0 0507 	STS  _BPS_absent+1,R30
                 ; 0000 0506                                  }
                 ; 0000 0507                          else BPS_absent=1;
00163e c006      	RJMP _0x3E2
                 _0x3E0:
00163f e0e1      	LDI  R30,LOW(1)
001640 e0f0      	LDI  R31,HIGH(1)
001641 93e0 0506 	STS  _BPS_absent,R30
001643 93f0 0507 	STS  _BPS_absent+1,R31
                 ; 0000 0508                              {
                 _0x3E2:
                 ; 0000 0509                                 rx_c_master=0;rx_m_master=0;
001645 94e8      	CLT
001646 f822      	BLD  R2,2
001647 f821      	BLD  R2,1
                 ; 0000 050A                                 rx_wr_index_master=0;rx_counter_master=0;
001648 e0e0      	LDI  R30,LOW(0)
001649 93e0 0595 	STS  _rx_wr_index_master,R30
00164b 93e0 0596 	STS  _rx_counter_master,R30
                 ; 0000 050B                                 ClearBuf_master;
00164d 93e0 050a 	STS  _rx_buffer_master,R30
                +
00164f 93e0 050b+STS _rx_buffer_master + ( 1 ) , R30
                 	__PUTB1MN _rx_buffer_master,1
                +
001651 93e0 050c+STS _rx_buffer_master + ( 2 ) , R30
                 	__PUTB1MN _rx_buffer_master,2
                +
001653 93e0 050d+STS _rx_buffer_master + ( 3 ) , R30
                 	__PUTB1MN _rx_buffer_master,3
                +
001655 93e0 050e+STS _rx_buffer_master + ( 4 ) , R30
                 	__PUTB1MN _rx_buffer_master,4
                +
001657 93e0 050f+STS _rx_buffer_master + ( 5 ) , R30
                 	__PUTB1MN _rx_buffer_master,5
                +
001659 93e0 0510+STS _rx_buffer_master + ( 6 ) , R30
                 	__PUTB1MN _rx_buffer_master,6
                +
00165b 93e0 0511+STS _rx_buffer_master + ( 7 ) , R30
                 	__PUTB1MN _rx_buffer_master,7
                +
00165d 93e0 0512+STS _rx_buffer_master + ( 8 ) , R30
                 	__PUTB1MN _rx_buffer_master,8
                +
00165f 93e0 0513+STS _rx_buffer_master + ( 9 ) , R30
                 	__PUTB1MN _rx_buffer_master,9
                 ; 0000 050C                                 send_read_skz1;
001661 efef      	LDI  R30,LOW(65535)
001662 efff      	LDI  R31,HIGH(65535)
001663 93e0 059b 	STS  _crc_master,R30
001665 93f0 059c 	STS  _crc_master+1,R31
001667 e0a1      	LDI  R26,LOW(1)
001668 d19d      	RCALL _mov_buf_master
001669 e0a4      	LDI  R26,LOW(4)
00166a d19b      	RCALL _mov_buf_master
00166b e0a0      	LDI  R26,LOW(0)
00166c d199      	RCALL _mov_buf_master
00166d e8a3      	LDI  R26,LOW(131)
00166e d197      	RCALL _mov_buf_master
00166f e0a0      	LDI  R26,LOW(0)
001670 d195      	RCALL _mov_buf_master
001671 e0a1      	LDI  R26,LOW(1)
001672 d193      	RCALL _mov_buf_master
001673 d1b3      	RCALL _crc_end_master
                 ; 0000 050D                                 whait_read;
001674 e0e0      	LDI  R30,LOW(0)
001675 e0f0      	LDI  R31,HIGH(0)
001676 bdfd      	OUT  0x2C+1,R31
001677 bdec      	OUT  0x2C,R30
001678 e0e3      	LDI  R30,LOW(3)
001679 bdee      	OUT  0x2E,R30
                 _0x3E3:
00167a b7e6      	IN   R30,0x36
00167b ffe2      	SBRS R30,2
00167c cffd      	RJMP _0x3E3
00167d e0e0      	LDI  R30,LOW(0)
00167e bdee      	OUT  0x2E,R30
00167f b7e6      	IN   R30,0x36
001680 bfe6      	OUT  0x36,R30
                 ; 0000 050E                                 if (check_cr_master()==1)
001681 d0d5      	RCALL _check_cr_master
001682 30e1      	CPI  R30,LOW(0x1)
001683 f469      	BRNE _0x3E6
                 ; 0000 050F                                 {
                 ; 0000 0510                                 if(rx_counter_master==7) SKZ_1=((int)rx_buffer_master[3])<<8|(char)rx_buffer_master[4];
001684 91a0 0596 	LDS  R26,_rx_counter_master
001686 30a7      	CPI  R26,LOW(0x7)
001687 f449      	BRNE _0x3E7
                +
001688 91b0 050d+LDS R27 , _rx_buffer_master + ( 3 )
                 	__GETBRMN 27,_rx_buffer_master,3
00168a e0a0      	LDI  R26,LOW(0)
                +
00168b 91e0 050e+LDS R30 , _rx_buffer_master + ( 4 )
                 	__GETB1MN _rx_buffer_master,4
00168d e0f0      	LDI  R31,0
00168e 2bea      	OR   R30,R26
00168f 2bfb      	OR   R31,R27
001690 014f      	MOVW R8,R30
                 ; 0000 0511                                 }
                 _0x3E7:
                 ; 0000 0512                                 rx_c_master=0;rx_m_master=0;
                 _0x3E6:
001691 94e8      	CLT
001692 f822      	BLD  R2,2
001693 f821      	BLD  R2,1
                 ; 0000 0513                                 rx_wr_index_master=0;rx_counter_master=0;
001694 e0e0      	LDI  R30,LOW(0)
001695 93e0 0595 	STS  _rx_wr_index_master,R30
001697 93e0 0596 	STS  _rx_counter_master,R30
                 ; 0000 0514                                 ClearBuf_master;
001699 93e0 050a 	STS  _rx_buffer_master,R30
                +
00169b 93e0 050b+STS _rx_buffer_master + ( 1 ) , R30
                 	__PUTB1MN _rx_buffer_master,1
                +
00169d 93e0 050c+STS _rx_buffer_master + ( 2 ) , R30
                 	__PUTB1MN _rx_buffer_master,2
                +
00169f 93e0 050d+STS _rx_buffer_master + ( 3 ) , R30
                 	__PUTB1MN _rx_buffer_master,3
                +
0016a1 93e0 050e+STS _rx_buffer_master + ( 4 ) , R30
                 	__PUTB1MN _rx_buffer_master,4
                +
0016a3 93e0 050f+STS _rx_buffer_master + ( 5 ) , R30
                 	__PUTB1MN _rx_buffer_master,5
                +
0016a5 93e0 0510+STS _rx_buffer_master + ( 6 ) , R30
                 	__PUTB1MN _rx_buffer_master,6
                +
0016a7 93e0 0511+STS _rx_buffer_master + ( 7 ) , R30
                 	__PUTB1MN _rx_buffer_master,7
                +
0016a9 93e0 0512+STS _rx_buffer_master + ( 8 ) , R30
                 	__PUTB1MN _rx_buffer_master,8
                +
0016ab 93e0 0513+STS _rx_buffer_master + ( 9 ) , R30
                 	__PUTB1MN _rx_buffer_master,9
                 ; 0000 0515                                 send_read_skz2;
0016ad efef      	LDI  R30,LOW(65535)
0016ae efff      	LDI  R31,HIGH(65535)
0016af 93e0 059b 	STS  _crc_master,R30
0016b1 93f0 059c 	STS  _crc_master+1,R31
0016b3 e0a1      	LDI  R26,LOW(1)
0016b4 d151      	RCALL _mov_buf_master
0016b5 e0a4      	LDI  R26,LOW(4)
0016b6 d14f      	RCALL _mov_buf_master
0016b7 e0a0      	LDI  R26,LOW(0)
0016b8 d14d      	RCALL _mov_buf_master
0016b9 e8a4      	LDI  R26,LOW(132)
0016ba d14b      	RCALL _mov_buf_master
0016bb e0a0      	LDI  R26,LOW(0)
0016bc d149      	RCALL _mov_buf_master
0016bd e0a1      	LDI  R26,LOW(1)
0016be d147      	RCALL _mov_buf_master
0016bf d167      	RCALL _crc_end_master
                 ; 0000 0516                                 whait_read;
0016c0 e0e0      	LDI  R30,LOW(0)
0016c1 e0f0      	LDI  R31,HIGH(0)
0016c2 bdfd      	OUT  0x2C+1,R31
0016c3 bdec      	OUT  0x2C,R30
0016c4 e0e3      	LDI  R30,LOW(3)
0016c5 bdee      	OUT  0x2E,R30
                 _0x3E8:
0016c6 b7e6      	IN   R30,0x36
0016c7 ffe2      	SBRS R30,2
0016c8 cffd      	RJMP _0x3E8
0016c9 e0e0      	LDI  R30,LOW(0)
0016ca bdee      	OUT  0x2E,R30
0016cb b7e6      	IN   R30,0x36
0016cc bfe6      	OUT  0x36,R30
                 ; 0000 0517                                 if (check_cr_master()==1)
0016cd d089      	RCALL _check_cr_master
0016ce 30e1      	CPI  R30,LOW(0x1)
0016cf f469      	BRNE _0x3EB
                 ; 0000 0518                                 {
                 ; 0000 0519                                 if(rx_counter_master==7) SKZ_2=((int)rx_buffer_master[3])<<8|(char)rx_buffer_master[4];
0016d0 91a0 0596 	LDS  R26,_rx_counter_master
0016d2 30a7      	CPI  R26,LOW(0x7)
0016d3 f449      	BRNE _0x3EC
                +
0016d4 91b0 050d+LDS R27 , _rx_buffer_master + ( 3 )
                 	__GETBRMN 27,_rx_buffer_master,3
0016d6 e0a0      	LDI  R26,LOW(0)
                +
0016d7 91e0 050e+LDS R30 , _rx_buffer_master + ( 4 )
                 	__GETB1MN _rx_buffer_master,4
0016d9 e0f0      	LDI  R31,0
0016da 2bea      	OR   R30,R26
0016db 2bfb      	OR   R31,R27
0016dc 015f      	MOVW R10,R30
                 ; 0000 051A                                 }
                 _0x3EC:
                 ; 0000 051B                             }
                 _0x3EB:
                 ; 0000 051C                          EEPROM_write(eeAddressSKZ1toSKZ2, SKZ1toSKZ2);
0016dd e0e4      	LDI  R30,LOW(1028)
0016de e0f4      	LDI  R31,HIGH(1028)
0016df 93fa      	ST   -Y,R31
0016e0 93ea      	ST   -Y,R30
0016e1 2dac      	MOV  R26,R12
0016e2 940e 0804 	CALL _EEPROM_write
                 ; 0000 051D                          EEPROM_write(eeAddressSKZ1H, SKZ_1>>8);
0016e4 e0e0      	LDI  R30,LOW(1024)
0016e5 e0f4      	LDI  R31,HIGH(1024)
0016e6 93fa      	ST   -Y,R31
0016e7 93ea      	ST   -Y,R30
0016e8 2da9      	MOV  R26,R9
0016e9 940e 0804 	CALL _EEPROM_write
                 ; 0000 051E                          EEPROM_write(eeAddressSKZ1L, SKZ_1);
0016eb e0e1      	LDI  R30,LOW(1025)
0016ec e0f4      	LDI  R31,HIGH(1025)
0016ed 93fa      	ST   -Y,R31
0016ee 93ea      	ST   -Y,R30
0016ef 2da8      	MOV  R26,R8
0016f0 940e 0804 	CALL _EEPROM_write
                 ; 0000 051F                          EEPROM_write(eeAddressSKZ2H, SKZ_2>>8);
0016f2 e0e2      	LDI  R30,LOW(1026)
0016f3 e0f4      	LDI  R31,HIGH(1026)
0016f4 93fa      	ST   -Y,R31
0016f5 93ea      	ST   -Y,R30
0016f6 2dab      	MOV  R26,R11
0016f7 940e 0804 	CALL _EEPROM_write
                 ; 0000 0520                          EEPROM_write(eeAddressSKZ2L, SKZ_2);
0016f9 e0e3      	LDI  R30,LOW(1027)
0016fa e0f4      	LDI  R31,HIGH(1027)
0016fb 93fa      	ST   -Y,R31
0016fc 93ea      	ST   -Y,R30
0016fd 2daa      	MOV  R26,R10
0016fe 940e 0804 	CALL _EEPROM_write
                 ; 0000 0521  //                               blink_display(SKZ1toSKZ2);     //βροξμξγΰςελόνΰ τσνκφθ δλ οπξρμξςπΰ ρξδεπζθμξγξ αστ ...
                 ; 0000 0522                                       if(SKZ1toSKZ2<=40)
001700 e2e8      	LDI  R30,LOW(40)
001701 e0f0      	LDI  R31,HIGH(40)
001702 15ec      	CP   R30,R12
001703 05fd      	CPC  R31,R13
001704 f0c0      	BRLO _0x3ED
                 ; 0000 0523                                       {
                 ; 0000 0524                                         warning_flag=1;
001705 e0e1      	LDI  R30,LOW(1)
001706 e0f0      	LDI  R31,HIGH(1)
001707 93e0 05b3 	STS  _warning_flag,R30
001709 93f0 05b4 	STS  _warning_flag+1,R31
                 ; 0000 0525                                         if(SKZ1toSKZ2<=20)blink_flag=1;
00170b e1e4      	LDI  R30,LOW(20)
00170c e0f0      	LDI  R31,HIGH(20)
00170d 15ec      	CP   R30,R12
00170e 05fd      	CPC  R31,R13
00170f f038      	BRLO _0x3EE
001710 e0e1      	LDI  R30,LOW(1)
001711 e0f0      	LDI  R31,HIGH(1)
001712 93e0 05b9 	STS  _blink_flag,R30
001714 93f0 05ba 	STS  _blink_flag+1,R31
                 ; 0000 0526                                         else blink_flag=0;
001716 c005      	RJMP _0x3EF
                 _0x3EE:
001717 e0e0      	LDI  R30,LOW(0)
001718 93e0 05b9 	STS  _blink_flag,R30
00171a 93e0 05ba 	STS  _blink_flag+1,R30
                 ; 0000 0527                                       }
                 _0x3EF:
                 ; 0000 0528                                       else warning_flag=0;
00171c c005      	RJMP _0x3F0
                 _0x3ED:
00171d e0e0      	LDI  R30,LOW(0)
00171e 93e0 05b3 	STS  _warning_flag,R30
001720 93e0 05b4 	STS  _warning_flag+1,R30
                 ; 0000 0529                                       CalibrFlag=1;
                 _0x3F0:
001722 e0e1      	LDI  R30,LOW(1)
001723 93e0 058b 	STS  _CalibrFlag,R30
                 ; 0000 052A save_skz_arrays(red);save_freq_order();
001725 91a0 05bb 	LDS  R26,_red
001727 91b0 05bc 	LDS  R27,_red+1
001729 940e 0c3d 	CALL _save_skz_arrays
00172b 940e 0d41 	CALL _save_freq_order
                 ; 0000 052B send_frequency_value();
00172d 940e 0dd9 	CALL _send_frequency_value
                 ; 0000 052C EEPROM_write(eeAddrCalibrFlag, CalibrFlag);
00172f efef      	LDI  R30,LOW(1279)
001730 e0f4      	LDI  R31,HIGH(1279)
001731 93fa      	ST   -Y,R31
001732 93ea      	ST   -Y,R30
001733 91a0 058b 	LDS  R26,_CalibrFlag
001735 940e 0804 	CALL _EEPROM_write
                 ; 0000 052D 
                 ; 0000 052E                         }
                 ; 0000 052F 
                 ; 0000 0530                 }
                 _0x3D7:
                 _0x3D6:
                 ; 0000 0531 
                 ; 0000 0532 
                 ; 0000 0533         if(key==1)if(++drebezg>1)
                 _0x3CD:
001737 9b9d      	SBIS 0x13,5
001738 c014      	RJMP _0x3F1
001739 91a0 05ad 	LDS  R26,_drebezg
00173b 5faf      	SUBI R26,-LOW(1)
00173c 93a0 05ad 	STS  _drebezg,R26
00173e 30a2      	CPI  R26,LOW(0x2)
00173f f068      	BRLO _0x3F2
                 ; 0000 0534             {
                 ; 0000 0535             press=0;drebezg=0;
001740 94e8      	CLT
001741 f826      	BLD  R2,6
001742 e0e0      	LDI  R30,LOW(0)
001743 93e0 05ad 	STS  _drebezg,R30
                 ; 0000 0536             if ((first_press==1)&&(second_press==1))
001745 fe27      	SBRS R2,7
001746 c002      	RJMP _0x3F4
001747 fc30      	SBRC R3,0
001748 c001      	RJMP _0x3F5
                 _0x3F4:
001749 c003      	RJMP _0x3F3
                 _0x3F5:
                 ; 0000 0537                {
                 ; 0000 0538                first_press=0;
00174a 94e8      	CLT
00174b f827      	BLD  R2,7
                 ; 0000 0539                second_press=0;//οξρλε 2γξ νΰζΰςθ νΰ κνξοκσ, ραπΰρϋβΰεμ τλΰγθ ρπΰαξςΰβψθυ νΰζΰςθι
00174c f830      	BLD  R3,0
                 ; 0000 053A                }
                 ; 0000 053B             }
                 _0x3F3:
                 ; 0000 053C /*        if (rx_c_slave==1)
                 ; 0000 053D                 {
                 ; 0000 053E                 if (check_cr_slave()==1)
                 ; 0000 053F                         {
                 ; 0000 0540         		crc_slave=0xffff;
                 ; 0000 0541         		switch (rx_buffer_slave[1])
                 ; 0000 0542                                 {
                 ; 0000 0543         		        case 4:{if (rx_counter_slave==8)response_m_aa4();
                 ; 0000 0544         	          	     	else   response_m_err(1);
                 ; 0000 0545         	          	     	break;}
                 ; 0000 0546         		        case 6:{if (rx_counter_slave==8)response_m_aa6();
                 ; 0000 0547         	          	     	else   response_m_err(1);
                 ; 0000 0548         	          	     	break;}
                 ; 0000 0549         		        default:response_m_err(2);
                 ; 0000 054A         		        }
                 ; 0000 054B                         }
                 ; 0000 054C        	        rx_c_master=0;rx_m_master=0;rx_wr_index_master=0;rx_counter_master=0;
                 ; 0000 054D        	        rx_c_slave=0;rx_m_slave=0;rx_wr_index_slave=0;rx_counter_slave=0;
                 ; 0000 054E                 }    */
                 ; 0000 054F                 rx_c_master=0;rx_m_master=0;rx_wr_index_master=0;rx_counter_master=0;
                 _0x3F2:
                 _0x3F1:
00174d 94e8      	CLT
00174e f822      	BLD  R2,2
00174f f821      	BLD  R2,1
001750 e0e0      	LDI  R30,LOW(0)
001751 93e0 0595 	STS  _rx_wr_index_master,R30
001753 93e0 0596 	STS  _rx_counter_master,R30
                 ; 0000 0550        	     //   rx_c_slave=0;rx_m_slave=0;rx_wr_index_slave=0;rx_counter_slave=0;
                 ; 0000 0551           //led_red_off;
                 ; 0000 0552         }
001755 cae1      	RJMP _0x38A
                 ; 0000 0553 }
                 _0x3F6:
001756 cfff      	RJMP _0x3F6
                 ; .FEND
                 ;//------οπξβεπκΰ κξνςπξλόνξι ρσμμϋ master-------//
                 ;char check_cr_master()                          //
                 ; 0000 0556         {                                       //
                 _check_cr_master:
                 ; .FSTART _check_cr_master
                 ; 0000 0557         char error;                             //
                 ; 0000 0558 	error=1;crc_master=0xFFFF;i=0;          //
001757 931a      	ST   -Y,R17
                 ;	error -> R17
001758 e011      	LDI  R17,LOW(1)
001759 efef      	LDI  R30,LOW(65535)
00175a efff      	LDI  R31,HIGH(65535)
00175b 93e0 059b 	STS  _crc_master,R30
00175d 93f0 059c 	STS  _crc_master+1,R31
00175f e0e0      	LDI  R30,LOW(0)
001760 93e0 05ac 	STS  _i,R30
                 ; 0000 0559 	while (i<(rx_wr_index_master-1)){crc_rtu_master(rx_buffer_master[i]);i++;}
                 _0x3F7:
001762 91e0 0595 	LDS  R30,_rx_wr_index_master
001764 e0f0      	LDI  R31,0
001765 9731      	SBIW R30,1
001766 91a0 05ac 	LDS  R26,_i
001768 e0b0      	LDI  R27,0
001769 17ae      	CP   R26,R30
00176a 07bf      	CPC  R27,R31
00176b f46c      	BRGE _0x3F9
00176c 91e0 05ac 	LDS  R30,_i
00176e e0f0      	LDI  R31,0
00176f 5fe6      	SUBI R30,LOW(-_rx_buffer_master)
001770 4ffa      	SBCI R31,HIGH(-_rx_buffer_master)
001771 81a0      	LD   R26,Z
001772 d02b      	RCALL _crc_rtu_master
001773 91e0 05ac 	LDS  R30,_i
001775 5fef      	SUBI R30,-LOW(1)
001776 93e0 05ac 	STS  _i,R30
001778 cfe9      	RJMP _0x3F7
                 _0x3F9:
                 ; 0000 055A 	if ((rx_buffer_master[rx_wr_index_master])!=(crc_master>>8)) error=0;
001779 91e0 0595 	LDS  R30,_rx_wr_index_master
00177b e0f0      	LDI  R31,0
00177c 5fe6      	SUBI R30,LOW(-_rx_buffer_master)
00177d 4ffa      	SBCI R31,HIGH(-_rx_buffer_master)
00177e 81a0      	LD   R26,Z
00177f 91e0 059b 	LDS  R30,_crc_master
001781 91f0 059c 	LDS  R31,_crc_master+1
001783 940e 19f5 	CALL __ASRW8
001785 e0b0      	LDI  R27,0
001786 17ea      	CP   R30,R26
001787 07fb      	CPC  R31,R27
001788 f009      	BREQ _0x3FA
001789 e010      	LDI  R17,LOW(0)
                 ; 0000 055B 	if ((rx_buffer_master[rx_wr_index_master-1])!=(crc_master&0x00FF)) error=0;
                 _0x3FA:
00178a 91e0 0595 	LDS  R30,_rx_wr_index_master
00178c e0f0      	LDI  R31,0
00178d 9731      	SBIW R30,1
00178e 5fe6      	SUBI R30,LOW(-_rx_buffer_master)
00178f 4ffa      	SBCI R31,HIGH(-_rx_buffer_master)
001790 81a0      	LD   R26,Z
001791 91e0 059b 	LDS  R30,_crc_master
001793 91f0 059c 	LDS  R31,_crc_master+1
001795 70f0      	ANDI R31,HIGH(0xFF)
001796 e0b0      	LDI  R27,0
001797 17ea      	CP   R30,R26
001798 07fb      	CPC  R31,R27
001799 f009      	BREQ _0x3FB
00179a e010      	LDI  R17,LOW(0)
                 ; 0000 055C 	return error;                           //
                 _0x3FB:
00179b 2fe1      	MOV  R30,R17
00179c 9119      	LD   R17,Y+
00179d 9508      	RET
                 ; 0000 055D         }                                       //
                 ; .FEND
                 ;//------οπξβεπκΰ κξνςπξλόνξι ρσμμϋ slave--------//
                 ;char check_cr_slave()                           //
                 ; 0000 0560         {                                       //
                 ; 0000 0561         char error;                             //
                 ; 0000 0562 	error=1;crc_slave=0xFFFF;i=0;           //
                 ;	error -> R17
                 ; 0000 0563 	while (i<(rx_wr_index_slave-1)){crc_rtu_slave(rx_buffer_slave[i]);i++;}
                 ; 0000 0564 	if ((rx_buffer_slave[rx_wr_index_slave])!=(crc_slave>>8)) error=0;
                 ; 0000 0565 	if ((rx_buffer_slave[rx_wr_index_slave-1])!=(crc_slave&0x00FF)) error=0;
                 ; 0000 0566 	return error;                           //
                 ; 0000 0567         }                                       //
                 ;//------πΰρχες κξνςπξλόνξι ρσμμϋ master---------//
                 ;void crc_rtu_master(char a)		        //
                 ; 0000 056A 	{				        //
                 _crc_rtu_master:
                 ; .FSTART _crc_rtu_master
                 ; 0000 056B 	char n;                                 //
                 ; 0000 056C 	crc_master = a^crc_master;	        //
00179e 93aa      	ST   -Y,R26
00179f 931a      	ST   -Y,R17
                 ;	a -> Y+1
                 ;	n -> R17
0017a0 81e9      	LDD  R30,Y+1
0017a1 e0f0      	LDI  R31,0
0017a2 91a0 059b 	LDS  R26,_crc_master
0017a4 91b0 059c 	LDS  R27,_crc_master+1
0017a6 27ea      	EOR  R30,R26
0017a7 27fb      	EOR  R31,R27
0017a8 93e0 059b 	STS  _crc_master,R30
0017aa 93f0 059c 	STS  _crc_master+1,R31
                 ; 0000 056D 	for(n=0; n<8; n++)		        //
0017ac e010      	LDI  R17,LOW(0)
                 _0x402:
0017ad 3018      	CPI  R17,8
0017ae f588      	BRSH _0x403
                 ; 0000 056E 		{			        //
                 ; 0000 056F 		if(crc_master & 0x0001 == 1)	//
0017af 91e0 059b 	LDS  R30,_crc_master
0017b1 70e1      	ANDI R30,LOW(0x1)
0017b2 f0e1      	BREQ _0x404
                 ; 0000 0570 			{		        //
                 ; 0000 0571 			crc_master = crc_master>>1;//
0017b3 91e0 059b 	LDS  R30,_crc_master
0017b5 91f0 059c 	LDS  R31,_crc_master+1
0017b7 95f5      	ASR  R31
0017b8 95e7      	ROR  R30
0017b9 93e0 059b 	STS  _crc_master,R30
0017bb 93f0 059c 	STS  _crc_master+1,R31
                 ; 0000 0572 			crc_master=crc_master&0x7fff;//
                +
0017bd 91e0 059c+LDS R30 , _crc_master + ( 1 )
0017bf 77ef     +ANDI R30 , LOW ( 127 )
0017c0 93e0 059c+STS _crc_master + ( 1 ) , R30
                 	__ANDBMNN _crc_master,1,127
                 ; 0000 0573 			crc_master = crc_master^0xA001;//
0017c2 91a0 059b 	LDS  R26,_crc_master
0017c4 91b0 059c 	LDS  R27,_crc_master+1
0017c6 e0e1      	LDI  R30,LOW(40961)
0017c7 eaf0      	LDI  R31,HIGH(40961)
0017c8 27ea      	EOR  R30,R26
0017c9 27fb      	EOR  R31,R27
0017ca 93e0 059b 	STS  _crc_master,R30
0017cc 93f0 059c 	STS  _crc_master+1,R31
                 ; 0000 0574 			}		        //
                 ; 0000 0575 		else			        //
0017ce c00f      	RJMP _0x405
                 _0x404:
                 ; 0000 0576 			{ 		        //
                 ; 0000 0577 			crc_master = crc_master>>1;//
0017cf 91e0 059b 	LDS  R30,_crc_master
0017d1 91f0 059c 	LDS  R31,_crc_master+1
0017d3 95f5      	ASR  R31
0017d4 95e7      	ROR  R30
0017d5 93e0 059b 	STS  _crc_master,R30
0017d7 93f0 059c 	STS  _crc_master+1,R31
                 ; 0000 0578 			crc_master=crc_master&0x7fff;//
                +
0017d9 91e0 059c+LDS R30 , _crc_master + ( 1 )
0017db 77ef     +ANDI R30 , LOW ( 127 )
0017dc 93e0 059c+STS _crc_master + ( 1 ) , R30
                 	__ANDBMNN _crc_master,1,127
                 ; 0000 0579 			} 		        //
                 _0x405:
                 ; 0000 057A 		}			        //
0017de 5f1f      	SUBI R17,-1
0017df cfcd      	RJMP _0x402
                 _0x403:
                 ; 0000 057B 	}
0017e0 c022      	RJMP _0x20A0002
                 ; .FEND
                 ;
                 ;void  CRC_update(unsigned char d){
                 ; 0000 057D void  CRC_update(unsigned char d){
                 _CRC_update:
                 ; .FSTART _CRC_update
                 ; 0000 057E   unsigned char uindex;
                 ; 0000 057F   uindex = CRCHigh^d;
0017e1 93aa      	ST   -Y,R26
0017e2 931a      	ST   -Y,R17
                 ;	d -> Y+1
                 ;	uindex -> R17
0017e3 81e9      	LDD  R30,Y+1
0017e4 91a0 0598 	LDS  R26,_CRCHigh
0017e6 27ea      	EOR  R30,R26
0017e7 2f1e      	MOV  R17,R30
                 ; 0000 0580   CRCHigh=CRCLow^(crctable[uindex]>>8);
0017e8 eca3      	LDI  R26,LOW(_crctable_G000)
0017e9 e0b5      	LDI  R27,HIGH(_crctable_G000)
0017ea e0f0      	LDI  R31,0
0017eb 0fee      	LSL  R30
0017ec 1fff      	ROL  R31
0017ed 0fae      	ADD  R26,R30
0017ee 1fbf      	ADC  R27,R31
0017ef 940e 1a58 	CALL __GETW1P
0017f1 940e 19f5 	CALL __ASRW8
0017f3 91a0 0599 	LDS  R26,_CRCLow
0017f5 27ea      	EOR  R30,R26
0017f6 93e0 0598 	STS  _CRCHigh,R30
                 ; 0000 0581   CRCLow=crctable[uindex];
0017f8 2fe1      	MOV  R30,R17
0017f9 eca3      	LDI  R26,LOW(_crctable_G000)
0017fa e0b5      	LDI  R27,HIGH(_crctable_G000)
0017fb e0f0      	LDI  R31,0
0017fc 0fee      	LSL  R30
0017fd 1fff      	ROL  R31
0017fe 0fae      	ADD  R26,R30
0017ff 1fbf      	ADC  R27,R31
001800 91ec      	LD   R30,X
001801 93e0 0599 	STS  _CRCLow,R30
                 ; 0000 0582 
                 ; 0000 0583 }			        //
                 _0x20A0002:
001803 8118      	LDD  R17,Y+0
001804 9622      	ADIW R28,2
001805 9508      	RET
                 ; .FEND
                 ;//------πΰρχες κξνςπξλόνξι ρσμμϋ slave----------//
                 ;void crc_rtu_slave(char a)		        //
                 ; 0000 0586 	{				        //
                 ; 0000 0587 	char n;                                 //
                 ; 0000 0588 	crc_slave = a^crc_slave;	        //
                 ;	a -> Y+1
                 ;	n -> R17
                 ; 0000 0589 	for(n=0; n<8; n++)		        //
                 ; 0000 058A 		{			        //
                 ; 0000 058B 		if(crc_slave & 0x0001 == 1)     //
                 ; 0000 058C 			{		        //
                 ; 0000 058D 			crc_slave =crc_slave>>1;//
                 ; 0000 058E 			crc_slave=crc_slave&0x7fff;//
                 ; 0000 058F 			crc_slave = crc_slave^0xA001;//
                 ; 0000 0590 			}		        //
                 ; 0000 0591 		else			        //
                 ; 0000 0592 			{ 		        //
                 ; 0000 0593 			crc_slave = crc_slave>>1;//
                 ; 0000 0594 			crc_slave=crc_slave&0x7fff;//
                 ; 0000 0595 			} 		        //
                 ; 0000 0596 		}			        //
                 ; 0000 0597 	}
                 ;       //
                 ;//------αΰις β ασττεπ οεπεδΰςχθκΰ master--------//
                 ;void mov_buf_master(char a){crc_rtu_master(a);mov_buf0(a);}//
                 ; 0000 059A void mov_buf_master(char a){crc_rtu_master(a);mov_buf0(a);}
                 _mov_buf_master:
                 ; .FSTART _mov_buf_master
001806 93aa      	ST   -Y,R26
                 ;	a -> Y+0
001807 81a8      	LD   R26,Y
001808 df95      	RCALL _crc_rtu_master
001809 81a8      	LD   R26,Y
00180a d001      	RCALL _mov_buf0
00180b c019      	RJMP _0x20A0001
                 ; .FEND
                 ;void mov_buf0(char a)			        //
                 ; 0000 059C 	{				        //
                 _mov_buf0:
                 ; .FSTART _mov_buf0
                 ; 0000 059D 	#asm("cli");    		        //
00180c 93aa      	ST   -Y,R26
                 ;	a -> Y+0
00180d 94f8      	cli
                 ; 0000 059E 	tx_buffer_counter_master++;	        //
00180e 91e0 05a9 	LDS  R30,_tx_buffer_counter_master
001810 5fef      	SUBI R30,-LOW(1)
001811 93e0 05a9 	STS  _tx_buffer_counter_master,R30
                 ; 0000 059F 	tx_buffer_master[tx_buffer_end_master]=a;//
001813 91e0 094a 	LDS  R30,_tx_buffer_end_master
001815 e0f0      	LDI  R31,0
001816 53e7      	SUBI R30,LOW(-_tx_buffer_master)
001817 4ff7      	SBCI R31,HIGH(-_tx_buffer_master)
001818 81a8      	LD   R26,Y
001819 83a0      	STD  Z+0,R26
                 ; 0000 05A0 	if (++tx_buffer_end_master==TX_BUFFER_SIZE) tx_buffer_end_master=0;//
00181a 91a0 094a 	LDS  R26,_tx_buffer_end_master
00181c 5faf      	SUBI R26,-LOW(1)
00181d 93a0 094a 	STS  _tx_buffer_end_master,R26
00181f 38a0      	CPI  R26,LOW(0x80)
001820 f419      	BRNE _0x40B
001821 e0e0      	LDI  R30,LOW(0)
001822 93e0 094a 	STS  _tx_buffer_end_master,R30
                 ; 0000 05A1 	#asm("sei");			        //
                 _0x40B:
001824 9478      	sei
                 ; 0000 05A2 	}				        //
                 _0x20A0001:
001825 9621      	ADIW R28,1
001826 9508      	RET
                 ; .FEND
                 ;//------αΰις β ασττεπ οεπεδΰςχθκΰ slave---------//
                 ;void mov_buf_slave(char a){CRC_update(a);mov_buf1(a);}//
                 ; 0000 05A4 void mov_buf_slave(char a){CRC_update(a);mov_buf1(a);}
                 ;	a -> Y+0
                 ;void mov_buf1(char a)			        //
                 ; 0000 05A6 	{				        //
                 ; 0000 05A7 	#asm("cli");    		        //
                 ;	a -> Y+0
                 ; 0000 05A8 	tx_buffer_counter_slave++;	        //
                 ; 0000 05A9 	tx_buffer_slave[tx_buffer_end_slave]=a; //
                 ; 0000 05AA 	if (++tx_buffer_end_slave==TX_BUFFER_SIZE) tx_buffer_end_slave=0;//
                 ; 0000 05AB 	#asm("sei");			        //
                 ; 0000 05AC 	}				        //
                 ;//------οξρϋλκΰ κξνςπξλόνξι ρσμμϋ---------------//
                 ;//------νΰχΰλξ οεπεδΰχθ οξ master---------------//
                 ;void crc_end_master()				//
                 ; 0000 05B0 	{				        //
                 _crc_end_master:
                 ; .FSTART _crc_end_master
                 ; 0000 05B1 	mov_buf0(crc_master);mov_buf0(crc_master>>8);//
001827 91a0 059b 	LDS  R26,_crc_master
001829 dfe2      	RCALL _mov_buf0
00182a 91e0 059b 	LDS  R30,_crc_master
00182c 91f0 059c 	LDS  R31,_crc_master+1
00182e 940e 19f5 	CALL __ASRW8
001830 2fae      	MOV  R26,R30
001831 dfda      	RCALL _mov_buf0
                 ; 0000 05B2 	TX_master_on;                              //
001832 9a94      	SBI  0x12,4
                 ; 0000 05B3        	UDR1=tx_buffer_master[tx_buffer_begin_master];//
001833 91e0 0949 	LDS  R30,_tx_buffer_begin_master
001835 e0f0      	LDI  R31,0
001836 53e7      	SUBI R30,LOW(-_tx_buffer_master)
001837 4ff7      	SBCI R31,HIGH(-_tx_buffer_master)
001838 81e0      	LD   R30,Z
001839 93e0 009c 	STS  156,R30
                 ; 0000 05B4 	tx_en_master=1;crc_master=0xffff;       //
00183b 9468      	SET
00183c f820      	BLD  R2,0
00183d efef      	LDI  R30,LOW(65535)
00183e efff      	LDI  R31,HIGH(65535)
00183f 93e0 059b 	STS  _crc_master,R30
001841 93f0 059c 	STS  _crc_master+1,R31
                 ; 0000 05B5 	}				        //
001843 9508      	RET
                 ; .FEND
                 ;//------οξρϋλκΰ κξνςπξλόνξι ρσμμϋ---------------//
                 ;//------νΰχΰλξ οεπεδΰχθ οξ slave----------------//
                 ;void crc_end_slave()				//
                 ; 0000 05B9 	{				        //
                 ; 0000 05BA 	mov_buf1(crc_slave);mov_buf1(crc_slave>>8);//
                 ; 0000 05BB 	TX_slave_on;                            //
                 ; 0000 05BC        	UDR0=tx_buffer_slave[tx_buffer_begin_slave];//
                 ; 0000 05BD 	tx_en_slave=1;crc_slave=0xffff;	        //
                 ; 0000 05BE 	}				        //
                 ;void send_test()				//
                 ; 0000 05C0 	{				        //
                 ; 0000 05C1 	TX_slave_on;                            //
                 ; 0000 05C2        	UDR0=tx_buffer_slave[tx_buffer_begin_slave];//
                 ; 0000 05C3 	tx_en_slave=1;
                 ; 0000 05C4 	}
                 ;//------ξςβες ξψθακΰ----------------------------//
                 ;void response_m_err(char a)                     //
                 ; 0000 05C7         {                                       //
                 ; 0000 05C8 	mov_buf_slave(rx_buffer_slave[0]);      //
                 ;	a -> Y+0
                 ; 0000 05C9 	mov_buf_slave(rx_buffer_slave[1]|128);  //
                 ; 0000 05CA 	mov_buf_slave(a);                       //
                 ; 0000 05CB         crc_end_slave();                        //
                 ; 0000 05CC         }                                       //
                 ;//----------------------------------------------//
                 ;unsigned char save_reg(unsigned int d,unsigned int a)
                 ; 0000 05CF         {                                       //
                 ; 0000 05D0         if      (a==0x01)               kn=d;   //
                 ;	d -> Y+2
                 ;	a -> Y+0
                 ; 0000 05D1         else if (a==0x02)               kv=d;   //
                 ; 0000 05D2         else                            return 0;//
                 ; 0000 05D3         return 1;                               //
                 ; 0000 05D4         }                                       //
                 ;//----------------------------------------------//
                 ;void response_m_aa4()                           //
                 ; 0000 05D7         {                                       //
                 ; 0000 05D8 //       	crc_master=0xFFFF;                      //
                 ; 0000 05D9 //       	for (i=0;i<rx_counter_slave-2;i++){mov_buf_master(rx_buffer_slave[i]);}
                 ; 0000 05DA //        crc_end_master();crc_master=0xFFFF;     //
                 ; 0000 05DB //        TCNT1=0x0000;TCCR1B=0x03;//8000000/8==1us*65535=65ms
                 ; 0000 05DC //        while ((TIFR&0b00000100)==0);           //
                 ; 0000 05DD //        TCCR1B=0;TIFR=TIFR;                     //
                 ; 0000 05DE //       	crc_slave=0xFFFF;                       //
                 ; 0000 05DF //       	for (i=0;i<rx_counter_master-2;i++){mov_buf_slave(rx_buffer_master[i]);}
                 ; 0000 05E0 //        crc_end_slave();                        //
                 ; 0000 05E1         }                                       //
                 ;//----------------------------------------------//
                 ;void response_m_aa6()                           //
                 ; 0000 05E4         {                                       //
                 ; 0000 05E5 //        unsigned int d,a,i;                     //
                 ; 0000 05E6 //        a=rx_buffer_slave[2];a=(a<<8)+rx_buffer_slave[3];d=rx_buffer_slave[4];d=(d<<8)+rx_buffer_slave[5];
                 ; 0000 05E7 //	if (save_reg(d,a)==1){for (i=0;i<6;i++)mov_buf_slave(rx_buffer_slave[i]);crc_end_slave();}
                 ; 0000 05E8 //	else                                    //
                 ; 0000 05E9 //	        {                               //
                 ; 0000 05EA //               	crc_master=0xFFFF;              //
                 ; 0000 05EB //               	for (i=0;i<rx_counter_slave-2;i++)
                 ; 0000 05EC //               	        {mov_buf_master(rx_buffer_slave[i]);}
                 ; 0000 05ED //                crc_end_master();crc_master=0xFFFF;
                 ; 0000 05EE //                TCNT1=0x0000;TCCR1B=0x03;//8000000/8==1us*65535=65ms
                 ; 0000 05EF //                while ((TIFR&0b00000100)==0);  //
                 ; 0000 05F0 //                TCCR1B=0;                      //
                 ; 0000 05F1 //                TIFR=TIFR;                     //
                 ; 0000 05F2 //               	crc_slave=0xFFFF;              //
                 ; 0000 05F3 //               	for (i=0;i<rx_counter_master-2;i++){mov_buf_slave(rx_buffer_master[i]);}
                 ; 0000 05F4 //                crc_end_slave();               //
                 ; 0000 05F5 //	        }                              //
                 ; 0000 05F6         }                                      //
                 ;//----------------------------------------------//
                 ;
                 ;
                 ;
                 ;void GetCRC16(char len)
                 ; 0000 05FC {int b;
                 ; 0000 05FD  crc_slave = 0xFFFF;
                 ;	len -> Y+2
                 ;	b -> R16,R17
                 ; 0000 05FE  for(b=0;b<len;b++)
                 ; 0000 05FF   {
                 ; 0000 0600    crc_slave = crctable[((crc_slave>>8)^rx_buffer_slave[b])&0xFF] ^ (crc_slave<<8);
                 ; 0000 0601   }
                 ; 0000 0602  crc_slave ^= 0xFFFF;
                 ; 0000 0603  //return crc_slave;
                 ; 0000 0604 }
                 ;
                 
                 	.CSEG
                 	#ifndef __SLEEP_DEFINED__
                 	#endif
                 
                 	.CSEG
                 
                 	.CSEG
                 
                 	.DSEG
                 
                 	.CSEG
                 
                 	.CSEG
                 
                 	.CSEG
                 
                 	.DSEG
                 _SKZ_read:
000500           	.BYTE 0x2
                 _true_skz:
000502           	.BYTE 0x2
                 _terminal_mode:
000504           	.BYTE 0x2
                 _BPS_absent:
000506           	.BYTE 0x2
                 _bps_absent_ctr:
000508           	.BYTE 0x2
                 _rx_buffer_master:
00050a           	.BYTE 0x80
                 _rd_counts:
00058a           	.BYTE 0x1
                 _CalibrFlag:
00058b           	.BYTE 0x1
                 _r:
00058c           	.BYTE 0x1
                 _object_state:
00058d           	.BYTE 0x1
                 _SPI_tEnd:
00058e           	.BYTE 0x1
                 _ModBusAddress:
00058f           	.BYTE 0x2
                 _minimal_SKZ_val:
000591           	.BYTE 0x2
                 _minimal_object_enabled_level:
000593           	.BYTE 0x2
                 _rx_wr_index_master:
000595           	.BYTE 0x1
                 _rx_counter_master:
000596           	.BYTE 0x1
                 _mod_time_master:
000597           	.BYTE 0x1
                 _CRCHigh:
000598           	.BYTE 0x1
                 _CRCLow:
000599           	.BYTE 0x1
                 _reg91_answer:
00059a           	.BYTE 0x1
                 _crc_master:
00059b           	.BYTE 0x2
                 _crc_slave:
00059d           	.BYTE 0x2
                 _AverTime_Value:
00059f           	.BYTE 0x2
                 _AvTimer:
0005a1           	.BYTE 0x2
                 _start_calibration:
0005a3           	.BYTE 0x2
                 _flash_erase_flag:
0005a5           	.BYTE 0x2
                 _AverSKZ_Value:
0005a7           	.BYTE 0x2
                 _tx_buffer_counter_master:
0005a9           	.BYTE 0x1
                 _tx_buffer_counter_slave:
0005aa           	.BYTE 0x1
                 _FreqOrder_read:
0005ab           	.BYTE 0x1
                 _i:
0005ac           	.BYTE 0x1
                 _drebezg:
0005ad           	.BYTE 0x1
                 _AverSKZprcnt:
0005ae           	.BYTE 0x1
                 _BlinkCounter_Calibration:
0005af           	.BYTE 0x2
                 _tok:
0005b1           	.BYTE 0x2
                 _warning_flag:
0005b3           	.BYTE 0x2
                 _FrequencyQ:
0005b5           	.BYTE 0x2
                 _ModbusMessage:
0005b7           	.BYTE 0x2
                 _blink_flag:
0005b9           	.BYTE 0x2
                 _red:
0005bb           	.BYTE 0x2
                 _SKZread_counter:
0005bd           	.BYTE 0x4
                 _DeviceID_G000:
0005c1           	.BYTE 0x2
                 _crctable_G000:
0005c3           	.BYTE 0x200
                 _rx_buffer_slave:
0007c3           	.BYTE 0x80
                 _RData:
000843           	.BYTE 0x1
                 _rx_wr_index_slave:
000844           	.BYTE 0x1
                 _rx_counter_slave:
000845           	.BYTE 0x1
                 _mod_time_slave:
000846           	.BYTE 0x1
                 _tx_buffer_slave:
000847           	.BYTE 0x80
                 _tx_buffer_begin_slave:
0008c7           	.BYTE 0x1
                 _tx_buffer_end_slave:
0008c8           	.BYTE 0x1
                 _tx_buffer_master:
0008c9           	.BYTE 0x80
                 _tx_buffer_begin_master:
000949           	.BYTE 0x1
                 _tx_buffer_end_master:
00094a           	.BYTE 0x1
                 
                 	.ESEG
                 _kv:
000000 00
000001 00
000002 c8
000003 42        	.DB  0x0,0x0,0xC8,0x42
                 _kn:
000004 00
000005 00
000006 c8
000007 42        	.DB  0x0,0x0,0xC8,0x42
                 
                 	.DSEG
                 __seed_G102:
00094b           	.BYTE 0x4
                 
                 	.CSEG
                 
                 	.CSEG
                 _delay_ms:
001844 9610      	adiw r26,0
001845 f039      	breq __delay_ms1
                 __delay_ms0:
                +
001846 ed80     +LDI R24 , LOW ( 0x7D0 )
001847 e097     +LDI R25 , HIGH ( 0x7D0 )
                +__DELAY_USW_LOOP :
001848 9701     +SBIW R24 , 1
001849 f7f1     +BRNE __DELAY_USW_LOOP
                 	__DELAY_USW 0x7D0
00184a 95a8      	wdr
00184b 9711      	sbiw r26,1
00184c f7c9      	brne __delay_ms0
                 __delay_ms1:
00184d 9508      	ret
                 
                 __ROUND_REPACK:
00184e 2355      	TST  R21
00184f f442      	BRPL __REPACK
001850 3850      	CPI  R21,0x80
001851 f411      	BRNE __ROUND_REPACK0
001852 ffe0      	SBRS R30,0
001853 c004      	RJMP __REPACK
                 __ROUND_REPACK0:
001854 9631      	ADIW R30,1
001855 1f69      	ADC  R22,R25
001856 1f79      	ADC  R23,R25
001857 f06b      	BRVS __REPACK1
                 
                 __REPACK:
001858 e850      	LDI  R21,0x80
001859 2757      	EOR  R21,R23
00185a f411      	BRNE __REPACK0
00185b 935f      	PUSH R21
00185c c0cf      	RJMP __ZERORES
                 __REPACK0:
00185d 3f5f      	CPI  R21,0xFF
00185e f031      	BREQ __REPACK1
00185f 0f66      	LSL  R22
001860 0c00      	LSL  R0
001861 9557      	ROR  R21
001862 9567      	ROR  R22
001863 2f75      	MOV  R23,R21
001864 9508      	RET
                 __REPACK1:
001865 935f      	PUSH R21
001866 2000      	TST  R0
001867 f00a      	BRMI __REPACK2
001868 c0cf      	RJMP __MAXRES
                 __REPACK2:
001869 c0c8      	RJMP __MINRES
                 
                 __UNPACK:
00186a e850      	LDI  R21,0x80
00186b 2e19      	MOV  R1,R25
00186c 2215      	AND  R1,R21
00186d 0f88      	LSL  R24
00186e 1f99      	ROL  R25
00186f 2795      	EOR  R25,R21
001870 0f55      	LSL  R21
001871 9587      	ROR  R24
                 
                 __UNPACK1:
001872 e850      	LDI  R21,0x80
001873 2e07      	MOV  R0,R23
001874 2205      	AND  R0,R21
001875 0f66      	LSL  R22
001876 1f77      	ROL  R23
001877 2775      	EOR  R23,R21
001878 0f55      	LSL  R21
001879 9567      	ROR  R22
00187a 9508      	RET
                 
                 __CFD1U:
00187b 9468      	SET
00187c c001      	RJMP __CFD1U0
                 __CFD1:
00187d 94e8      	CLT
                 __CFD1U0:
00187e 935f      	PUSH R21
00187f dff2      	RCALL __UNPACK1
001880 3870      	CPI  R23,0x80
001881 f018      	BRLO __CFD10
001882 3f7f      	CPI  R23,0xFF
001883 f408      	BRCC __CFD10
001884 c0a7      	RJMP __ZERORES
                 __CFD10:
001885 e156      	LDI  R21,22
001886 1b57      	SUB  R21,R23
001887 f4aa      	BRPL __CFD11
001888 9551      	NEG  R21
001889 3058      	CPI  R21,8
00188a f40e      	BRTC __CFD19
00188b 3059      	CPI  R21,9
                 __CFD19:
00188c f030      	BRLO __CFD17
00188d efef      	SER  R30
00188e efff      	SER  R31
00188f ef6f      	SER  R22
001890 e77f      	LDI  R23,0x7F
001891 f977      	BLD  R23,7
001892 c01a      	RJMP __CFD15
                 __CFD17:
001893 2777      	CLR  R23
001894 2355      	TST  R21
001895 f0b9      	BREQ __CFD15
                 __CFD18:
001896 0fee      	LSL  R30
001897 1fff      	ROL  R31
001898 1f66      	ROL  R22
001899 1f77      	ROL  R23
00189a 955a      	DEC  R21
00189b f7d1      	BRNE __CFD18
00189c c010      	RJMP __CFD15
                 __CFD11:
00189d 2777      	CLR  R23
                 __CFD12:
00189e 3058      	CPI  R21,8
00189f f028      	BRLO __CFD13
0018a0 2fef      	MOV  R30,R31
0018a1 2ff6      	MOV  R31,R22
0018a2 2f67      	MOV  R22,R23
0018a3 5058      	SUBI R21,8
0018a4 cff9      	RJMP __CFD12
                 __CFD13:
0018a5 2355      	TST  R21
0018a6 f031      	BREQ __CFD15
                 __CFD14:
0018a7 9576      	LSR  R23
0018a8 9567      	ROR  R22
0018a9 95f7      	ROR  R31
0018aa 95e7      	ROR  R30
0018ab 955a      	DEC  R21
0018ac f7d1      	BRNE __CFD14
                 __CFD15:
0018ad 2000      	TST  R0
0018ae f40a      	BRPL __CFD16
0018af d125      	RCALL __ANEGD1
                 __CFD16:
0018b0 915f      	POP  R21
0018b1 9508      	RET
                 
                 __CDF1U:
0018b2 9468      	SET
0018b3 c001      	RJMP __CDF1U0
                 __CDF1:
0018b4 94e8      	CLT
                 __CDF1U0:
0018b5 9730      	SBIW R30,0
0018b6 4060      	SBCI R22,0
0018b7 4070      	SBCI R23,0
0018b8 f0b1      	BREQ __CDF10
0018b9 2400      	CLR  R0
0018ba f026      	BRTS __CDF11
0018bb 2377      	TST  R23
0018bc f412      	BRPL __CDF11
0018bd 9400      	COM  R0
0018be d116      	RCALL __ANEGD1
                 __CDF11:
0018bf 2e17      	MOV  R1,R23
0018c0 e17e      	LDI  R23,30
0018c1 2011      	TST  R1
                 __CDF12:
0018c2 f032      	BRMI __CDF13
0018c3 957a      	DEC  R23
0018c4 0fee      	LSL  R30
0018c5 1fff      	ROL  R31
0018c6 1f66      	ROL  R22
0018c7 1c11      	ROL  R1
0018c8 cff9      	RJMP __CDF12
                 __CDF13:
0018c9 2fef      	MOV  R30,R31
0018ca 2ff6      	MOV  R31,R22
0018cb 2d61      	MOV  R22,R1
0018cc 935f      	PUSH R21
0018cd df8a      	RCALL __REPACK
0018ce 915f      	POP  R21
                 __CDF10:
0018cf 9508      	RET
                 
                 __SWAPACC:
0018d0 934f      	PUSH R20
0018d1 01af      	MOVW R20,R30
0018d2 01fd      	MOVW R30,R26
0018d3 01da      	MOVW R26,R20
0018d4 01ab      	MOVW R20,R22
0018d5 01bc      	MOVW R22,R24
0018d6 01ca      	MOVW R24,R20
0018d7 2d40      	MOV  R20,R0
0018d8 2c01      	MOV  R0,R1
0018d9 2e14      	MOV  R1,R20
0018da 914f      	POP  R20
0018db 9508      	RET
                 
                 __UADD12:
0018dc 0fea      	ADD  R30,R26
0018dd 1ffb      	ADC  R31,R27
0018de 1f68      	ADC  R22,R24
0018df 9508      	RET
                 
                 __NEGMAN1:
0018e0 95e0      	COM  R30
0018e1 95f0      	COM  R31
0018e2 9560      	COM  R22
0018e3 5fef      	SUBI R30,-1
0018e4 4fff      	SBCI R31,-1
0018e5 4f6f      	SBCI R22,-1
0018e6 9508      	RET
                 
                 __SUBF12:
0018e7 935f      	PUSH R21
0018e8 df81      	RCALL __UNPACK
0018e9 3890      	CPI  R25,0x80
0018ea f171      	BREQ __ADDF129
0018eb e850      	LDI  R21,0x80
0018ec 2615      	EOR  R1,R21
                 
0018ed c004      	RJMP __ADDF120
                 
                 __ADDF12:
0018ee 935f      	PUSH R21
0018ef df7a      	RCALL __UNPACK
0018f0 3890      	CPI  R25,0x80
0018f1 f139      	BREQ __ADDF129
                 
                 __ADDF120:
0018f2 3870      	CPI  R23,0x80
0018f3 f121      	BREQ __ADDF128
                 __ADDF121:
0018f4 2f57      	MOV  R21,R23
0018f5 1b59      	SUB  R21,R25
0018f6 f12b      	BRVS __ADDF1211
0018f7 f412      	BRPL __ADDF122
0018f8 dfd7      	RCALL __SWAPACC
0018f9 cffa      	RJMP __ADDF121
                 __ADDF122:
0018fa 3158      	CPI  R21,24
0018fb f018      	BRLO __ADDF123
0018fc 27aa      	CLR  R26
0018fd 27bb      	CLR  R27
0018fe 2788      	CLR  R24
                 __ADDF123:
0018ff 3058      	CPI  R21,8
001900 f028      	BRLO __ADDF124
001901 2fab      	MOV  R26,R27
001902 2fb8      	MOV  R27,R24
001903 2788      	CLR  R24
001904 5058      	SUBI R21,8
001905 cff9      	RJMP __ADDF123
                 __ADDF124:
001906 2355      	TST  R21
001907 f029      	BREQ __ADDF126
                 __ADDF125:
001908 9586      	LSR  R24
001909 95b7      	ROR  R27
00190a 95a7      	ROR  R26
00190b 955a      	DEC  R21
00190c f7d9      	BRNE __ADDF125
                 __ADDF126:
00190d 2d50      	MOV  R21,R0
00190e 2551      	EOR  R21,R1
00190f f072      	BRMI __ADDF127
001910 dfcb      	RCALL __UADD12
001911 f438      	BRCC __ADDF129
001912 9567      	ROR  R22
001913 95f7      	ROR  R31
001914 95e7      	ROR  R30
001915 9573      	INC  R23
001916 f413      	BRVC __ADDF129
001917 c020      	RJMP __MAXRES
                 __ADDF128:
001918 dfb7      	RCALL __SWAPACC
                 __ADDF129:
001919 df3e      	RCALL __REPACK
00191a 915f      	POP  R21
00191b 9508      	RET
                 __ADDF1211:
00191c f7d8      	BRCC __ADDF128
00191d cffb      	RJMP __ADDF129
                 __ADDF127:
00191e 1bea      	SUB  R30,R26
00191f 0bfb      	SBC  R31,R27
001920 0b68      	SBC  R22,R24
001921 f051      	BREQ __ZERORES
001922 f410      	BRCC __ADDF1210
001923 9400      	COM  R0
001924 dfbb      	RCALL __NEGMAN1
                 __ADDF1210:
001925 2366      	TST  R22
001926 f392      	BRMI __ADDF129
001927 0fee      	LSL  R30
001928 1fff      	ROL  R31
001929 1f66      	ROL  R22
00192a 957a      	DEC  R23
00192b f7cb      	BRVC __ADDF1210
                 
                 __ZERORES:
00192c 27ee      	CLR  R30
00192d 27ff      	CLR  R31
00192e 2766      	CLR  R22
00192f 2777      	CLR  R23
001930 915f      	POP  R21
001931 9508      	RET
                 
                 __MINRES:
001932 efef      	SER  R30
001933 efff      	SER  R31
001934 e76f      	LDI  R22,0x7F
001935 ef7f      	SER  R23
001936 915f      	POP  R21
001937 9508      	RET
                 
                 __MAXRES:
001938 efef      	SER  R30
001939 efff      	SER  R31
00193a e76f      	LDI  R22,0x7F
00193b e77f      	LDI  R23,0x7F
00193c 915f      	POP  R21
00193d 9508      	RET
                 
                 __MULF12:
00193e 935f      	PUSH R21
00193f df2a      	RCALL __UNPACK
001940 3870      	CPI  R23,0x80
001941 f351      	BREQ __ZERORES
001942 3890      	CPI  R25,0x80
001943 f341      	BREQ __ZERORES
001944 2401      	EOR  R0,R1
001945 9408      	SEC
001946 1f79      	ADC  R23,R25
001947 f423      	BRVC __MULF124
001948 f31c      	BRLT __ZERORES
                 __MULF125:
001949 2000      	TST  R0
00194a f33a      	BRMI __MINRES
00194b cfec      	RJMP __MAXRES
                 __MULF124:
00194c 920f      	PUSH R0
00194d 931f      	PUSH R17
00194e 932f      	PUSH R18
00194f 933f      	PUSH R19
001950 934f      	PUSH R20
001951 2711      	CLR  R17
001952 2722      	CLR  R18
001953 2799      	CLR  R25
001954 9f68      	MUL  R22,R24
001955 01a0      	MOVW R20,R0
001956 9f8f      	MUL  R24,R31
001957 2d30      	MOV  R19,R0
001958 0d41      	ADD  R20,R1
001959 1f59      	ADC  R21,R25
00195a 9f6b      	MUL  R22,R27
00195b 0d30      	ADD  R19,R0
00195c 1d41      	ADC  R20,R1
00195d 1f59      	ADC  R21,R25
00195e 9f8e      	MUL  R24,R30
00195f d027      	RCALL __MULF126
001960 9fbf      	MUL  R27,R31
001961 d025      	RCALL __MULF126
001962 9f6a      	MUL  R22,R26
001963 d023      	RCALL __MULF126
001964 9fbe      	MUL  R27,R30
001965 d01d      	RCALL __MULF127
001966 9faf      	MUL  R26,R31
001967 d01b      	RCALL __MULF127
001968 9fae      	MUL  R26,R30
001969 0d11      	ADD  R17,R1
00196a 1f29      	ADC  R18,R25
00196b 1f39      	ADC  R19,R25
00196c 1f49      	ADC  R20,R25
00196d 1f59      	ADC  R21,R25
00196e 2fe3      	MOV  R30,R19
00196f 2ff4      	MOV  R31,R20
001970 2f65      	MOV  R22,R21
001971 2f52      	MOV  R21,R18
001972 914f      	POP  R20
001973 913f      	POP  R19
001974 912f      	POP  R18
001975 911f      	POP  R17
001976 900f      	POP  R0
001977 2366      	TST  R22
001978 f02a      	BRMI __MULF122
001979 0f55      	LSL  R21
00197a 1fee      	ROL  R30
00197b 1fff      	ROL  R31
00197c 1f66      	ROL  R22
00197d c002      	RJMP __MULF123
                 __MULF122:
00197e 9573      	INC  R23
00197f f24b      	BRVS __MULF125
                 __MULF123:
001980 decd      	RCALL __ROUND_REPACK
001981 915f      	POP  R21
001982 9508      	RET
                 
                 __MULF127:
001983 0d10      	ADD  R17,R0
001984 1d21      	ADC  R18,R1
001985 1f39      	ADC  R19,R25
001986 c002      	RJMP __MULF128
                 __MULF126:
001987 0d20      	ADD  R18,R0
001988 1d31      	ADC  R19,R1
                 __MULF128:
001989 1f49      	ADC  R20,R25
00198a 1f59      	ADC  R21,R25
00198b 9508      	RET
                 
                 __DIVF21:
00198c 935f      	PUSH R21
00198d dedc      	RCALL __UNPACK
00198e 3870      	CPI  R23,0x80
00198f f421      	BRNE __DIVF210
001990 2011      	TST  R1
                 __DIVF211:
001991 f40a      	BRPL __DIVF219
001992 cf9f      	RJMP __MINRES
                 __DIVF219:
001993 cfa4      	RJMP __MAXRES
                 __DIVF210:
001994 3890      	CPI  R25,0x80
001995 f409      	BRNE __DIVF218
                 __DIVF217:
001996 cf95      	RJMP __ZERORES
                 __DIVF218:
001997 2401      	EOR  R0,R1
001998 9408      	SEC
001999 0b97      	SBC  R25,R23
00199a f41b      	BRVC __DIVF216
00199b f3d4      	BRLT __DIVF217
00199c 2000      	TST  R0
00199d cff3      	RJMP __DIVF211
                 __DIVF216:
00199e 2f79      	MOV  R23,R25
00199f 931f      	PUSH R17
0019a0 932f      	PUSH R18
0019a1 933f      	PUSH R19
0019a2 934f      	PUSH R20
0019a3 2411      	CLR  R1
0019a4 2711      	CLR  R17
0019a5 2722      	CLR  R18
0019a6 2733      	CLR  R19
0019a7 2744      	CLR  R20
0019a8 2755      	CLR  R21
0019a9 e290      	LDI  R25,32
                 __DIVF212:
0019aa 17ae      	CP   R26,R30
0019ab 07bf      	CPC  R27,R31
0019ac 0786      	CPC  R24,R22
0019ad 0741      	CPC  R20,R17
0019ae f030      	BRLO __DIVF213
0019af 1bae      	SUB  R26,R30
0019b0 0bbf      	SBC  R27,R31
0019b1 0b86      	SBC  R24,R22
0019b2 0b41      	SBC  R20,R17
0019b3 9408      	SEC
0019b4 c001      	RJMP __DIVF214
                 __DIVF213:
0019b5 9488      	CLC
                 __DIVF214:
0019b6 1f55      	ROL  R21
0019b7 1f22      	ROL  R18
0019b8 1f33      	ROL  R19
0019b9 1c11      	ROL  R1
0019ba 1faa      	ROL  R26
0019bb 1fbb      	ROL  R27
0019bc 1f88      	ROL  R24
0019bd 1f44      	ROL  R20
0019be 959a      	DEC  R25
0019bf f751      	BRNE __DIVF212
0019c0 01f9      	MOVW R30,R18
0019c1 2d61      	MOV  R22,R1
0019c2 914f      	POP  R20
0019c3 913f      	POP  R19
0019c4 912f      	POP  R18
0019c5 911f      	POP  R17
0019c6 2366      	TST  R22
0019c7 f032      	BRMI __DIVF215
0019c8 0f55      	LSL  R21
0019c9 1fee      	ROL  R30
0019ca 1fff      	ROL  R31
0019cb 1f66      	ROL  R22
0019cc 957a      	DEC  R23
0019cd f243      	BRVS __DIVF217
                 __DIVF215:
0019ce de7f      	RCALL __ROUND_REPACK
0019cf 915f      	POP  R21
0019d0 9508      	RET
                 
                 __ANEGW1:
0019d1 95f1      	NEG  R31
0019d2 95e1      	NEG  R30
0019d3 40f0      	SBCI R31,0
0019d4 9508      	RET
                 
                 __ANEGD1:
0019d5 95f0      	COM  R31
0019d6 9560      	COM  R22
0019d7 9570      	COM  R23
0019d8 95e1      	NEG  R30
0019d9 4fff      	SBCI R31,-1
0019da 4f6f      	SBCI R22,-1
0019db 4f7f      	SBCI R23,-1
0019dc 9508      	RET
                 
                 __LSRB12:
0019dd 23ee      	TST  R30
0019de 2e0e      	MOV  R0,R30
0019df 2fea      	MOV  R30,R26
0019e0 f019      	BREQ __LSRB12R
                 __LSRB12L:
0019e1 95e6      	LSR  R30
0019e2 940a      	DEC  R0
0019e3 f7e9      	BRNE __LSRB12L
                 __LSRB12R:
0019e4 9508      	RET
                 
                 __LSLW3:
0019e5 0fee      	LSL  R30
0019e6 1fff      	ROL  R31
                 __LSLW2:
0019e7 0fee      	LSL  R30
0019e8 1fff      	ROL  R31
0019e9 0fee      	LSL  R30
0019ea 1fff      	ROL  R31
0019eb 9508      	RET
                 
                 __ASRW4:
0019ec 95f5      	ASR  R31
0019ed 95e7      	ROR  R30
                 __ASRW3:
0019ee 95f5      	ASR  R31
0019ef 95e7      	ROR  R30
                 __ASRW2:
0019f0 95f5      	ASR  R31
0019f1 95e7      	ROR  R30
0019f2 95f5      	ASR  R31
0019f3 95e7      	ROR  R30
0019f4 9508      	RET
                 
                 __ASRW8:
0019f5 2fef      	MOV  R30,R31
0019f6 27ff      	CLR  R31
0019f7 fde7      	SBRC R30,7
0019f8 efff      	SER  R31
0019f9 9508      	RET
                 
                 __CWD1:
0019fa 2f6f      	MOV  R22,R31
0019fb 0f66      	ADD  R22,R22
0019fc 0b66      	SBC  R22,R22
0019fd 2f76      	MOV  R23,R22
0019fe 9508      	RET
                 
                 __EQB12:
0019ff 17ea      	CP   R30,R26
001a00 e0e1      	LDI  R30,1
001a01 f009      	BREQ __EQB12T
001a02 27ee      	CLR  R30
                 __EQB12T:
001a03 9508      	RET
                 
                 __NEB12:
001a04 17ea      	CP   R30,R26
001a05 e0e1      	LDI  R30,1
001a06 f409      	BRNE __NEB12T
001a07 27ee      	CLR  R30
                 __NEB12T:
001a08 9508      	RET
                 
                 __EQW12:
001a09 17ea      	CP   R30,R26
001a0a 07fb      	CPC  R31,R27
001a0b e0e1      	LDI  R30,1
001a0c f009      	BREQ __EQW12T
001a0d 27ee      	CLR  R30
                 __EQW12T:
001a0e 9508      	RET
                 
                 __NEW12:
001a0f 17ea      	CP   R30,R26
001a10 07fb      	CPC  R31,R27
001a11 e0e1      	LDI  R30,1
001a12 f409      	BRNE __NEW12T
001a13 27ee      	CLR  R30
                 __NEW12T:
001a14 9508      	RET
                 
                 __LEW12:
001a15 17ea      	CP   R30,R26
001a16 07fb      	CPC  R31,R27
001a17 e0e1      	LDI  R30,1
001a18 f40c      	BRGE __LEW12T
001a19 27ee      	CLR  R30
                 __LEW12T:
001a1a 9508      	RET
                 
                 __GEW12:
001a1b 17ae      	CP   R26,R30
001a1c 07bf      	CPC  R27,R31
001a1d e0e1      	LDI  R30,1
001a1e f40c      	BRGE __GEW12T
001a1f 27ee      	CLR  R30
                 __GEW12T:
001a20 9508      	RET
                 
                 __LTW12:
001a21 17ae      	CP   R26,R30
001a22 07bf      	CPC  R27,R31
001a23 e0e1      	LDI  R30,1
001a24 f00c      	BRLT __LTW12T
001a25 27ee      	CLR  R30
                 __LTW12T:
001a26 9508      	RET
                 
                 __GTW12:
001a27 17ea      	CP   R30,R26
001a28 07fb      	CPC  R31,R27
001a29 e0e1      	LDI  R30,1
001a2a f00c      	BRLT __GTW12T
001a2b 27ee      	CLR  R30
                 __GTW12T:
001a2c 9508      	RET
                 
                 __LNEGW1:
001a2d 2bef      	OR   R30,R31
001a2e e0e1      	LDI  R30,1
001a2f f009      	BREQ __LNEGW1F
001a30 e0e0      	LDI  R30,0
                 __LNEGW1F:
001a31 9508      	RET
                 
                 __DIVW21U:
001a32 2400      	CLR  R0
001a33 2411      	CLR  R1
001a34 e190      	LDI  R25,16
                 __DIVW21U1:
001a35 0faa      	LSL  R26
001a36 1fbb      	ROL  R27
001a37 1c00      	ROL  R0
001a38 1c11      	ROL  R1
001a39 1a0e      	SUB  R0,R30
001a3a 0a1f      	SBC  R1,R31
001a3b f418      	BRCC __DIVW21U2
001a3c 0e0e      	ADD  R0,R30
001a3d 1e1f      	ADC  R1,R31
001a3e c001      	RJMP __DIVW21U3
                 __DIVW21U2:
001a3f 60a1      	SBR  R26,1
                 __DIVW21U3:
001a40 959a      	DEC  R25
001a41 f799      	BRNE __DIVW21U1
001a42 01fd      	MOVW R30,R26
001a43 01d0      	MOVW R26,R0
001a44 9508      	RET
                 
                 __DIVW21:
001a45 d004      	RCALL __CHKSIGNW
001a46 dfeb      	RCALL __DIVW21U
001a47 f40e      	BRTC __DIVW211
001a48 df88      	RCALL __ANEGW1
                 __DIVW211:
001a49 9508      	RET
                 
                 __CHKSIGNW:
001a4a 94e8      	CLT
001a4b fff7      	SBRS R31,7
001a4c c002      	RJMP __CHKSW1
001a4d df83      	RCALL __ANEGW1
001a4e 9468      	SET
                 __CHKSW1:
001a4f ffb7      	SBRS R27,7
001a50 c006      	RJMP __CHKSW2
001a51 95a0      	COM  R26
001a52 95b0      	COM  R27
001a53 9611      	ADIW R26,1
001a54 f800      	BLD  R0,0
001a55 9403      	INC  R0
001a56 fa00      	BST  R0,0
                 __CHKSW2:
001a57 9508      	RET
                 
                 __GETW1P:
001a58 91ed      	LD   R30,X+
001a59 91fc      	LD   R31,X
001a5a 9711      	SBIW R26,1
001a5b 9508      	RET
                 
                 __GETD1P_INC:
001a5c 91ed      	LD   R30,X+
001a5d 91fd      	LD   R31,X+
001a5e 916d      	LD   R22,X+
001a5f 917d      	LD   R23,X+
001a60 9508      	RET
                 
                 __PUTDP1_DEC:
001a61 937e      	ST   -X,R23
001a62 936e      	ST   -X,R22
001a63 93fe      	ST   -X,R31
001a64 93ee      	ST   -X,R30
001a65 9508      	RET
                 
                 __SWAPD12:
001a66 2e18      	MOV  R1,R24
001a67 2f86      	MOV  R24,R22
001a68 2d61      	MOV  R22,R1
001a69 2e19      	MOV  R1,R25
001a6a 2f97      	MOV  R25,R23
001a6b 2d71      	MOV  R23,R1
                 
                 __SWAPW12:
001a6c 2e1b      	MOV  R1,R27
001a6d 2fbf      	MOV  R27,R31
001a6e 2df1      	MOV  R31,R1
                 
                 __SWAPB12:
001a6f 2e1a      	MOV  R1,R26
001a70 2fae      	MOV  R26,R30
001a71 2de1      	MOV  R30,R1
001a72 9508      	RET
                 
                 __SAVELOCR6:
001a73 935a      	ST   -Y,R21
                 __SAVELOCR5:
001a74 934a      	ST   -Y,R20
                 __SAVELOCR4:
001a75 933a      	ST   -Y,R19
                 __SAVELOCR3:
001a76 932a      	ST   -Y,R18
                 __SAVELOCR2:
001a77 931a      	ST   -Y,R17
001a78 930a      	ST   -Y,R16
001a79 9508      	RET
                 
                 __LOADLOCR6:
001a7a 815d      	LDD  R21,Y+5
                 __LOADLOCR5:
001a7b 814c      	LDD  R20,Y+4
                 __LOADLOCR4:
001a7c 813b      	LDD  R19,Y+3
                 __LOADLOCR3:
001a7d 812a      	LDD  R18,Y+2
                 __LOADLOCR2:
001a7e 8119      	LDD  R17,Y+1
001a7f 8108      	LD   R16,Y
001a80 9508      	RET
                 
                 ;END OF CODE MARKER
                 __END_OF_CODE:


RESOURCE USE INFORMATION
------------------------

Notice:
The register and instruction counts are symbol table hit counts,
and hence implicitly used resources are not counted, eg, the
'lpm' instruction without operands implicitly uses r0 and z,
none of which are counted.

x,y,z are separate entities in the symbol table and are
counted separately from r26..r31 here.

.dseg memory usage only counts static data declared with .byte

ATmega128 register use summary:
r0 :  86 r1 :  38 r2 :  67 r3 :  30 r4 :   4 r5 :   1 r6 :   9 r7 :   4 
r8 :   7 r9 :   3 r10:   6 r11:   4 r12:   9 r13:   7 r14:   0 r15:   2 
r16:  42 r17:  54 r18:  22 r19:  20 r20:  29 r21:  69 r22:  82 r23:  55 
r24:  50 r25:  45 r26: 655 r27: 178 r28:  13 r29:   1 r30:2117 r31: 571 
x  :  40 y  : 207 z  :  85 
Registers used: 34 out of 35 (97.1%)

ATmega128 instruction use summary:
.lds  :   0 .lds.l:   0 .sts  :   0 .sts.l:   0 adc   :  26 add   :  20 
adiw  :  18 and   :  28 andi  : 159 asr   :   6 bclr  :   0 bld   :  75 
brbc  :   0 brbs  :   0 brcc  :   5 brcs  :   0 break :   0 breq  :  51 
brge  :   5 brhc  :   0 brhs  :   0 brid  :   0 brie  :   0 brlo  :  21 
brlt  :   8 brmi  :   7 brne  : 106 brpl  :   6 brsh  :   9 brtc  :   2 
brts  :   1 brvc  :   4 brvs  :   4 bset  :   0 bst   :   1 call  : 195 
cbi   : 143 cbr   :   0 clc   :   1 clh   :   0 cli   :  10 cln   :   0 
clr   :  50 cls   :   0 clt   :  30 clv   :   0 clz   :   0 com   :  10 
cp    :  24 cpc   :  50 cpi   : 104 cpse  :   0 dec   :  10 des   :   0 
elpm  :   0 eor   :  13 fmul  :   0 fmuls :   0 fmulsu:   0 icall :   0 
ijmp  :   0 in    :  47 inc   :   3 jmp   :  36 ld    : 113 ldd   :  29 
ldi   : 790 lds   : 533 lpm   :   7 lsl   :  39 lsr   :   3 mov   :  87 
movw  :  71 mul   :  14 muls  :   0 mulsu :   0 neg   :   4 nop   :   0 
or    :  48 ori   :  27 out   : 146 pop   :  38 push  :  38 rcall : 100 
ret   :  53 reti  :   8 rjmp  : 155 rol   :  32 ror   :  18 sbc   :  12 
sbci  : 108 sbi   :  54 sbic  :   6 sbis  :   4 sbiw  : 109 sbr   :   1 
sbrc  :  15 sbrs  :  30 sec   :   3 seh   :   0 sei   :   9 sen   :   0 
ser   :  10 ses   :   0 set   :  18 sev   :   0 sez   :   0 sleep :   0 
spm   :   0 st    : 152 std   :  31 sts   : 576 sub   :   9 subi  : 123 
swap  :   6 tst   :  15 wdr   :   1 
Instructions used: 79 out of 117 (67.5%)

ATmega128 memory use summary [bytes]:
Segment   Begin    End      Code   Data   Used    Size   Use%
---------------------------------------------------------------
[.cseg] 0x000000 0x003502  12546   1024  13570  131072  10.4%
[.dseg] 0x000100 0x00094f      0   1103   1103    4096  26.9%
[.eseg] 0x000000 0x000008      0      8      8    4096   0.2%

Assembly complete, 0 errors, 22 warnings
